ARM GAS  C:\Users\Admin\AppData\Local\Temp\ccEDEXPN.s 			page 1


   1              		.syntax unified
   2              		.cpu cortex-m3
   3              		.fpu softvfp
   4              		.eabi_attribute 20, 1
   5              		.eabi_attribute 21, 1
   6              		.eabi_attribute 23, 3
   7              		.eabi_attribute 24, 1
   8              		.eabi_attribute 25, 1
   9              		.eabi_attribute 26, 1
  10              		.eabi_attribute 30, 1
  11              		.eabi_attribute 34, 1
  12              		.eabi_attribute 18, 4
  13              		.thumb
  14              		.syntax unified
  15              		.file	"sc_display_type.c"
  16              		.text
  17              	.Ltext0:
  18              		.cfi_sections	.debug_frame
  19              		.section	.text.SC_DISPLAY_driverOut,"ax",%progbits
  20              		.align	2
  21              		.global	SC_DISPLAY_driverOut
  22              		.thumb
  23              		.thumb_func
  24              		.type	SC_DISPLAY_driverOut, %function
  25              	SC_DISPLAY_driverOut:
  26              	.LFB144:
  27              		.file 1 "source\\rte\\sc_display_type.c"
   1:source\rte/sc_display_type.c **** /*
   2:source\rte/sc_display_type.c ****  * Filename: sc_display_type.c
   3:source\rte/sc_display_type.c ****  *
   4:source\rte/sc_display_type.c ****  * Author: Autogenerated by H-DA RTE Generator, (c) Prof. Fromm
   5:source\rte/sc_display_type.c ****  *
   6:source\rte/sc_display_type.c ****  * description: Signal class for display
   7:source\rte/sc_display_type.c ****  * name: sc_Display
   8:source\rte/sc_display_type.c ****  * shortname: Display
   9:source\rte/sc_display_type.c ****  *
  10:source\rte/sc_display_type.c ****  */
  11:source\rte/sc_display_type.c **** 
  12:source\rte/sc_display_type.c **** #include "project.h"
  13:source\rte/sc_display_type.c **** #include "global.h"
  14:source\rte/sc_display_type.c **** #include "rte.h"
  15:source\rte/sc_display_type.c **** #include "rte_types.h"
  16:source\rte/sc_display_type.c **** #include "sc_display_type.h"
  17:source\rte/sc_display_type.c **** 
  18:source\rte/sc_display_type.c **** 
  19:source\rte/sc_display_type.c **** 
  20:source\rte/sc_display_type.c **** /* USER CODE START SC_DISPLAY_INCLUDE */
  21:source\rte/sc_display_type.c **** #include "stdlib.h"
  22:source\rte/sc_display_type.c **** #include "sp_common.h"
  23:source\rte/sc_display_type.c **** /* USER CODE END SC_DISPLAY_INCLUDE */
  24:source\rte/sc_display_type.c **** 
  25:source\rte/sc_display_type.c **** 
  26:source\rte/sc_display_type.c **** 
  27:source\rte/sc_display_type.c **** 
  28:source\rte/sc_display_type.c **** /* USER CODE START SC_DISPLAY_USERDEFINITIONS */
  29:source\rte/sc_display_type.c **** 
  30:source\rte/sc_display_type.c **** /* USER CODE END SC_DISPLAY_USERDEFINITIONS */
ARM GAS  C:\Users\Admin\AppData\Local\Temp\ccEDEXPN.s 			page 2


  31:source\rte/sc_display_type.c **** 
  32:source\rte/sc_display_type.c **** 
  33:source\rte/sc_display_type.c **** /*****************************************************************************************
  34:source\rte/sc_display_type.c ****  *************** Port Wrapper Implementation for SC_DISPLAY signal  ****************
  35:source\rte/sc_display_type.c ****  *****************************************************************************************/
  36:source\rte/sc_display_type.c ****  
  37:source\rte/sc_display_type.c ****  
  38:source\rte/sc_display_type.c **** /**
  39:source\rte/sc_display_type.c ****  * Default OUT driver API
  40:source\rte/sc_display_type.c ****  */
  41:source\rte/sc_display_type.c **** inline RC_t SC_DISPLAY_driverOut(const SC_DISPLAY_data_t  *const data)
  42:source\rte/sc_display_type.c **** {
  28              		.loc 1 42 0
  29              		.cfi_startproc
  30              		@ args = 0, pretend = 0, frame = 128
  31              		@ frame_needed = 0, uses_anonymous_args = 0
  32              	.LVL0:
  33 0000 2DE9F041 		push	{r4, r5, r6, r7, r8, lr}
  34              		.cfi_def_cfa_offset 24
  35              		.cfi_offset 4, -24
  36              		.cfi_offset 5, -20
  37              		.cfi_offset 6, -16
  38              		.cfi_offset 7, -12
  39              		.cfi_offset 8, -8
  40              		.cfi_offset 14, -4
  41 0004 A0B0     		sub	sp, sp, #128
  42              		.cfi_def_cfa_offset 152
  43 0006 0446     		mov	r4, r0
  43:source\rte/sc_display_type.c **** 	/* USER CODE START driverOutSC_DISPLAY */
  44:source\rte/sc_display_type.c ****        
  45:source\rte/sc_display_type.c ****     uint16_t local_hour_value    =   data->hour.value;
  44              		.loc 1 45 0
  45 0008 8579     		ldrb	r5, [r0, #6]	@ zero_extendqisi2
  46              	.LVL1:
  46:source\rte/sc_display_type.c ****             
  47:source\rte/sc_display_type.c ****     TFT_colors_t    bg_color_hour    =   data->hour.font_type.bg_colour;
  47              		.loc 1 47 0
  48 000a B0F80480 		ldrh	r8, [r0, #4]
  49              	.LVL2:
  48:source\rte/sc_display_type.c ****     TFT_colors_t    txt_color_hour   =   data->hour.font_type.widget_colour; 
  50              		.loc 1 48 0
  51 000e 4788     		ldrh	r7, [r0, #2]
  52              	.LVL3:
  49:source\rte/sc_display_type.c ****     TFT_setTextSize(3);
  53              		.loc 1 49 0
  54 0010 0320     		movs	r0, #3
  55              	.LVL4:
  56 0012 FFF7FEFF 		bl	TFT_setTextSize
  57              	.LVL5:
  50:source\rte/sc_display_type.c ****     TFT_setCursor(TFT_width()/6, TFT_height()/2);
  58              		.loc 1 50 0
  59 0016 FFF7FEFF 		bl	TFT_width
  60              	.LVL6:
  61 001a 0646     		mov	r6, r0
  62 001c FFF7FEFF 		bl	TFT_height
  63              	.LVL7:
  64 0020 00EBD070 		add	r0, r0, r0, lsr #31
ARM GAS  C:\Users\Admin\AppData\Local\Temp\ccEDEXPN.s 			page 3


  65 0024 3B4A     		ldr	r2, .L5
  66 0026 82FB0632 		smull	r3, r2, r2, r6
  67 002a A2EBE672 		sub	r2, r2, r6, asr #31
  68 002e 40F34F01 		sbfx	r1, r0, #1, #16
  69 0032 10B2     		sxth	r0, r2
  70 0034 FFF7FEFF 		bl	TFT_setCursor
  71              	.LVL8:
  51:source\rte/sc_display_type.c ****     TFT_setColors(txt_color_hour, bg_color_hour);   
  72              		.loc 1 51 0
  73 0038 4146     		mov	r1, r8
  74 003a 3846     		mov	r0, r7
  75 003c FFF7FEFF 		bl	TFT_setColors
  76              	.LVL9:
  77              	.LBB2:
  52:source\rte/sc_display_type.c ****     TFT_printf( "%d%d", (local_hour_value/10), (local_hour_value%10));
  78              		.loc 1 52 0
  79 0040 354A     		ldr	r2, .L5+4
  80 0042 A2FB0532 		umull	r3, r2, r2, r5
  81 0046 D208     		lsrs	r2, r2, #3
  82 0048 02EB8201 		add	r1, r2, r2, lsl #2
  83 004c 4B00     		lsls	r3, r1, #1
  84 004e EB1A     		subs	r3, r5, r3
  85 0050 9BB2     		uxth	r3, r3
  86 0052 3249     		ldr	r1, .L5+8
  87 0054 6846     		mov	r0, sp
  88 0056 FFF7FEFF 		bl	sprintf
  89              	.LVL10:
  90 005a 6846     		mov	r0, sp
  91 005c FFF7FEFF 		bl	TFT_print
  92              	.LVL11:
  93              	.LBE2:
  53:source\rte/sc_display_type.c ****     
  54:source\rte/sc_display_type.c ****     
  55:source\rte/sc_display_type.c ****     char blinker    =   ':';
  56:source\rte/sc_display_type.c ****     static uint8_t toggle   =   0;
  57:source\rte/sc_display_type.c ****     static uint16_t blinker_count    =   0;   
  58:source\rte/sc_display_type.c ****     if(toggle   ==  0)
  94              		.loc 1 58 0
  95 0060 2F4B     		ldr	r3, .L5+12
  96 0062 1B78     		ldrb	r3, [r3]	@ zero_extendqisi2
  97 0064 23B9     		cbnz	r3, .L2
  59:source\rte/sc_display_type.c ****     {
  60:source\rte/sc_display_type.c ****         blinker =   ':';
  61:source\rte/sc_display_type.c ****         toggle  =   1;
  98              		.loc 1 61 0
  99 0066 0122     		movs	r2, #1
 100 0068 2D4B     		ldr	r3, .L5+12
 101 006a 1A70     		strb	r2, [r3]
  60:source\rte/sc_display_type.c ****         toggle  =   1;
 102              		.loc 1 60 0
 103 006c 3A26     		movs	r6, #58
 104 006e 03E0     		b	.L3
 105              	.L2:
 106              	.LVL12:
  62:source\rte/sc_display_type.c ****     }
  63:source\rte/sc_display_type.c ****     else
  64:source\rte/sc_display_type.c ****     {
ARM GAS  C:\Users\Admin\AppData\Local\Temp\ccEDEXPN.s 			page 4


  65:source\rte/sc_display_type.c ****         blinker =   ' ';
  66:source\rte/sc_display_type.c ****         toggle  =    0;
 107              		.loc 1 66 0
 108 0070 0022     		movs	r2, #0
 109 0072 2B4B     		ldr	r3, .L5+12
 110 0074 1A70     		strb	r2, [r3]
  65:source\rte/sc_display_type.c ****         toggle  =    0;
 111              		.loc 1 65 0
 112 0076 2026     		movs	r6, #32
 113              	.LVL13:
 114              	.L3:
  67:source\rte/sc_display_type.c ****     }
  68:source\rte/sc_display_type.c ****     TFT_setTextSize(3);
 115              		.loc 1 68 0
 116 0078 0320     		movs	r0, #3
 117 007a FFF7FEFF 		bl	TFT_setTextSize
 118              	.LVL14:
  69:source\rte/sc_display_type.c ****     TFT_setCursor(TFT_width()/2,TFT_height()/2);
 119              		.loc 1 69 0
 120 007e FFF7FEFF 		bl	TFT_width
 121              	.LVL15:
 122 0082 0546     		mov	r5, r0
 123              	.LVL16:
 124 0084 FFF7FEFF 		bl	TFT_height
 125              	.LVL17:
 126 0088 00EBD070 		add	r0, r0, r0, lsr #31
 127 008c 05EBD575 		add	r5, r5, r5, lsr #31
 128 0090 40F34F01 		sbfx	r1, r0, #1, #16
 129 0094 45F34F00 		sbfx	r0, r5, #1, #16
 130 0098 FFF7FEFF 		bl	TFT_setCursor
 131              	.LVL18:
  70:source\rte/sc_display_type.c ****     TFT_setColors(WHITE, BLACK);
 132              		.loc 1 70 0
 133 009c 0021     		movs	r1, #0
 134 009e 4FF6FF70 		movw	r0, #65535
 135 00a2 FFF7FEFF 		bl	TFT_setColors
 136              	.LVL19:
 137              	.LBB3:
  71:source\rte/sc_display_type.c ****     TFT_printf( "%c", blinker);
 138              		.loc 1 71 0
 139 00a6 3246     		mov	r2, r6
 140 00a8 1E49     		ldr	r1, .L5+16
 141 00aa 6846     		mov	r0, sp
 142 00ac FFF7FEFF 		bl	sprintf
 143              	.LVL20:
 144 00b0 6846     		mov	r0, sp
 145 00b2 FFF7FEFF 		bl	TFT_print
 146              	.LVL21:
 147              	.LBE3:
  72:source\rte/sc_display_type.c ****     
  73:source\rte/sc_display_type.c ****     
  74:source\rte/sc_display_type.c ****     uint16_t local_minute_value  =   data->minute.value;
 148              		.loc 1 74 0
 149 00b6 A57B     		ldrb	r5, [r4, #14]	@ zero_extendqisi2
 150              	.LVL22:
  75:source\rte/sc_display_type.c ****     
  76:source\rte/sc_display_type.c ****     TFT_colors_t    bg_color_min    =   data->minute.font_type.bg_colour;
ARM GAS  C:\Users\Admin\AppData\Local\Temp\ccEDEXPN.s 			page 5


 151              		.loc 1 76 0
 152 00b8 A789     		ldrh	r7, [r4, #12]
 153              	.LVL23:
  77:source\rte/sc_display_type.c ****     TFT_colors_t    txt_color_min   =   data->minute.font_type.widget_colour;  
 154              		.loc 1 77 0
 155 00ba 6689     		ldrh	r6, [r4, #10]
 156              	.LVL24:
  78:source\rte/sc_display_type.c ****     TFT_setTextSize(3);
 157              		.loc 1 78 0
 158 00bc 0320     		movs	r0, #3
 159 00be FFF7FEFF 		bl	TFT_setTextSize
 160              	.LVL25:
  79:source\rte/sc_display_type.c ****     TFT_setCursor(2 * TFT_width()/3,TFT_height()/2);
 161              		.loc 1 79 0
 162 00c2 FFF7FEFF 		bl	TFT_width
 163              	.LVL26:
 164 00c6 4000     		lsls	r0, r0, #1
 165 00c8 174A     		ldr	r2, .L5+20
 166 00ca 82FB0032 		smull	r3, r2, r2, r0
 167 00ce A2EBE074 		sub	r4, r2, r0, asr #31
 168              	.LVL27:
 169 00d2 FFF7FEFF 		bl	TFT_height
 170              	.LVL28:
 171 00d6 00EBD070 		add	r0, r0, r0, lsr #31
 172 00da 40F34F01 		sbfx	r1, r0, #1, #16
 173 00de 20B2     		sxth	r0, r4
 174 00e0 FFF7FEFF 		bl	TFT_setCursor
 175              	.LVL29:
  80:source\rte/sc_display_type.c ****     TFT_setColors(txt_color_min, bg_color_min);   
 176              		.loc 1 80 0
 177 00e4 3946     		mov	r1, r7
 178 00e6 3046     		mov	r0, r6
 179 00e8 FFF7FEFF 		bl	TFT_setColors
 180              	.LVL30:
 181              	.LBB4:
  81:source\rte/sc_display_type.c ****     TFT_printf( "%d%d",(local_minute_value/10), (local_minute_value%10));
 182              		.loc 1 81 0
 183 00ec 0A4A     		ldr	r2, .L5+4
 184 00ee A2FB0532 		umull	r3, r2, r2, r5
 185 00f2 D208     		lsrs	r2, r2, #3
 186 00f4 02EB8201 		add	r1, r2, r2, lsl #2
 187 00f8 4B00     		lsls	r3, r1, #1
 188 00fa EB1A     		subs	r3, r5, r3
 189 00fc 9BB2     		uxth	r3, r3
 190 00fe 0749     		ldr	r1, .L5+8
 191 0100 6846     		mov	r0, sp
 192 0102 FFF7FEFF 		bl	sprintf
 193              	.LVL31:
 194 0106 6846     		mov	r0, sp
 195 0108 FFF7FEFF 		bl	TFT_print
 196              	.LVL32:
 197              	.LBE4:
  82:source\rte/sc_display_type.c ****     
  83:source\rte/sc_display_type.c ****     
  84:source\rte/sc_display_type.c **** 	//Scale application data to drive format
  85:source\rte/sc_display_type.c **** 
  86:source\rte/sc_display_type.c **** 	//Write scaled data to driver
ARM GAS  C:\Users\Admin\AppData\Local\Temp\ccEDEXPN.s 			page 6


  87:source\rte/sc_display_type.c **** 
  88:source\rte/sc_display_type.c **** 	return RC_SUCCESS;
  89:source\rte/sc_display_type.c **** 	/* USER CODE END driverOutSC_DISPLAY */
  90:source\rte/sc_display_type.c **** }
 198              		.loc 1 90 0
 199 010c 0020     		movs	r0, #0
 200 010e 20B0     		add	sp, sp, #128
 201              		.cfi_def_cfa_offset 24
 202              		@ sp needed
 203 0110 BDE8F081 		pop	{r4, r5, r6, r7, r8, pc}
 204              	.LVL33:
 205              	.L6:
 206              		.align	2
 207              	.L5:
 208 0114 ABAAAA2A 		.word	715827883
 209 0118 CDCCCCCC 		.word	-858993459
 210 011c 00000000 		.word	.LC0
 211 0120 00000000 		.word	.LANCHOR0
 212 0124 08000000 		.word	.LC1
 213 0128 56555555 		.word	1431655766
 214              		.cfi_endproc
 215              	.LFE144:
 216              		.size	SC_DISPLAY_driverOut, .-SC_DISPLAY_driverOut
 217              		.section	.rodata.str1.4,"aMS",%progbits,1
 218              		.align	2
 219              	.LC0:
 220 0000 25642564 		.ascii	"%d%d\000"
 220      00
 221 0005 000000   		.space	3
 222              	.LC1:
 223 0008 256300   		.ascii	"%c\000"
 224              		.bss
 225              		.set	.LANCHOR0,. + 0
 226              		.type	toggle.8064, %object
 227              		.size	toggle.8064, 1
 228              	toggle.8064:
 229 0000 00       		.space	1
 230              		.text
 231              	.Letext0:
 232              		.file 2 "d:\\psoc creator\\4.4\\psoc creator\\import\\gnu\\arm\\5.4.1\\arm-none-eabi\\include\\mac
 233              		.file 3 "d:\\psoc creator\\4.4\\psoc creator\\import\\gnu\\arm\\5.4.1\\arm-none-eabi\\include\\sys
 234              		.file 4 "Generated_Source\\PSoC5/ErikaOS_common_ee_types.inc"
 235              		.file 5 "Generated_Source\\PSoC5/ErikaOS_cortex_mx_ee_cpu.inc"
 236              		.file 6 ".\\source\\bsw/global.h"
 237              		.file 7 ".\\source\\bsw\\tft/tft.h"
 238              		.file 8 ".\\source\\asw/clock_type.h"
 239              		.file 9 "source\\rte\\sc_display_type.h"
 240              		.file 10 "Generated_Source\\PSoC5/ErikaOS_ee_oo_intfunc.inc"
 241              		.file 11 "Generated_Source\\PSoC5/ErikaOS_cortex_mx_ee_context.inc"
 242              		.file 12 "Generated_Source\\PSoC5/ErikaOS_common_ee_primitives.inc"
 243              		.file 13 "Generated_Source\\PSoC5/core_cm3.h"
 244              		.file 14 "d:\\psoc creator\\4.4\\psoc creator\\import\\gnu\\arm\\5.4.1\\arm-none-eabi\\include\\st