ARM GAS  C:\Users\Admin\AppData\Local\Temp\ccnyUUyZ.s 			page 1


   1              		.syntax unified
   2              		.cpu cortex-m3
   3              		.fpu softvfp
   4              		.eabi_attribute 20, 1
   5              		.eabi_attribute 21, 1
   6              		.eabi_attribute 23, 3
   7              		.eabi_attribute 24, 1
   8              		.eabi_attribute 25, 1
   9              		.eabi_attribute 26, 1
  10              		.eabi_attribute 30, 1
  11              		.eabi_attribute 34, 1
  12              		.eabi_attribute 18, 4
  13              		.thumb
  14              		.syntax unified
  15              		.file	"statemachine.c"
  16              		.text
  17              	.Ltext0:
  18              		.cfi_sections	.debug_frame
  19              		.section	.text.STATE__getIndexCurrentState,"ax",%progbits
  20              		.align	2
  21              		.global	STATE__getIndexCurrentState
  22              		.thumb
  23              		.thumb_func
  24              		.type	STATE__getIndexCurrentState, %function
  25              	STATE__getIndexCurrentState:
  26              	.LFB1:
  27              		.file 1 "source\\asw\\statemachine.c"
   1:source\asw/statemachine.c **** /**
   2:source\asw/statemachine.c **** * \file <filename>
   3:source\asw/statemachine.c **** * \author <author-name>
   4:source\asw/statemachine.c **** * \date <date>
   5:source\asw/statemachine.c **** *
   6:source\asw/statemachine.c **** * \brief <Symbolic File name>
   7:source\asw/statemachine.c **** *
   8:source\asw/statemachine.c **** * \copyright Copyright ©2016
   9:source\asw/statemachine.c **** * Department of electrical engineering and information technology, Hochschule Darmstadt - Universit
  10:source\asw/statemachine.c **** * Permission to use, copy, modify, and distribute this software and its documentation for education
  11:source\asw/statemachine.c **** * (unless permitted by h_da) and official h_da projects, is hereby granted for enrolled students of
  12:source\asw/statemachine.c **** * this paragraph and the following paragraph appear in all copies, modifications, and distributions
  13:source\asw/statemachine.c **** * Contact Prof.Dr.-Ing. Peter Fromm, peter.fromm@h-da.de, Birkenweg 8 64295 Darmstadt - GERMANY for
  14:source\asw/statemachine.c **** *
  15:source\asw/statemachine.c **** * \warning This software is a PROTOTYPE version and is not designed or intended for use in producti
  16:source\asw/statemachine.c **** * The user represents and warrants that it will NOT use or redistribute the Software for such purpo
  17:source\asw/statemachine.c **** * This prototype is for research purposes only. This software is provided "AS IS," without a warran
  18:source\asw/statemachine.c **** */
  19:source\asw/statemachine.c **** 
  20:source\asw/statemachine.c **** /*****************************************************************************/
  21:source\asw/statemachine.c **** /* Include files                                                             */
  22:source\asw/statemachine.c **** /*****************************************************************************/
  23:source\asw/statemachine.c **** #include "statemachine.h"
  24:source\asw/statemachine.c **** 
  25:source\asw/statemachine.c **** /*****************************************************************************/
  26:source\asw/statemachine.c **** /* Local pre-processor symbols/macros ('#define')                            */
  27:source\asw/statemachine.c **** /*****************************************************************************/
  28:source\asw/statemachine.c **** 
  29:source\asw/statemachine.c **** /*****************************************************************************/
  30:source\asw/statemachine.c **** /* Global variable definitions (declared in header file with 'extern')       */
ARM GAS  C:\Users\Admin\AppData\Local\Temp\ccnyUUyZ.s 			page 2


  31:source\asw/statemachine.c **** /*****************************************************************************/
  32:source\asw/statemachine.c **** 
  33:source\asw/statemachine.c **** /*****************************************************************************/
  34:source\asw/statemachine.c **** /* Local type definitions ('typedef')                                        */
  35:source\asw/statemachine.c **** /*****************************************************************************/
  36:source\asw/statemachine.c **** 
  37:source\asw/statemachine.c **** /*****************************************************************************/
  38:source\asw/statemachine.c **** /* Local variable definitions ('static')                                     */
  39:source\asw/statemachine.c **** /*****************************************************************************/
  40:source\asw/statemachine.c **** 
  41:source\asw/statemachine.c **** 
  42:source\asw/statemachine.c **** 
  43:source\asw/statemachine.c **** /*****************************************************************************/
  44:source\asw/statemachine.c **** /* Local function prototypes ('static')                                      */
  45:source\asw/statemachine.c **** /*****************************************************************************/
  46:source\asw/statemachine.c **** 
  47:source\asw/statemachine.c **** 
  48:source\asw/statemachine.c **** /*****************************************************************************/
  49:source\asw/statemachine.c **** /* Function implementation - global ('extern') and local ('static')          */
  50:source\asw/statemachine.c **** /*****************************************************************************/
  51:source\asw/statemachine.c **** 
  52:source\asw/statemachine.c **** #define INVALIDINDEX -1
  53:source\asw/statemachine.c **** 
  54:source\asw/statemachine.c **** /** return the index of the provided state in the given table 
  55:source\asw/statemachine.c ****  **/
  56:source\asw/statemachine.c **** sint16_t STATE__getIndexCurrentState(STATE_stateOuterTransitionTable_t const  transitionTable,
  57:source\asw/statemachine.c ****                         uint16_t transitionTableSize,
  58:source\asw/statemachine.c ****                         STATE_state_t state)
  59:source\asw/statemachine.c **** {
  28              		.loc 1 59 0
  29              		.cfi_startproc
  30              		@ args = 0, pretend = 0, frame = 0
  31              		@ frame_needed = 0, uses_anonymous_args = 0
  32              		@ link register save eliminated.
  33              	.LVL0:
  34 0000 30B4     		push	{r4, r5}
  35              		.cfi_def_cfa_offset 8
  36              		.cfi_offset 4, -8
  37              		.cfi_offset 5, -4
  38              	.LVL1:
  39              	.LBB2:
  60:source\asw/statemachine.c ****     
  61:source\asw/statemachine.c ****     sint16_t result = INVALIDINDEX; //error
  62:source\asw/statemachine.c ****     
  63:source\asw/statemachine.c ****     for (uint16_t i = 0; i < transitionTableSize; i++)
  40              		.loc 1 63 0
  41 0002 0023     		movs	r3, #0
  42 0004 09E0     		b	.L2
  43              	.LVL2:
  44              	.L5:
  64:source\asw/statemachine.c ****     {
  65:source\asw/statemachine.c ****         if (transitionTable[i].fromState == state)
  45              		.loc 1 65 0
  46 0006 03EB4305 		add	r5, r3, r3, lsl #1
  47 000a AC00     		lsls	r4, r5, #2
  48 000c 045D     		ldrb	r4, [r0, r4]	@ zero_extendqisi2
  49 000e 9442     		cmp	r4, r2
ARM GAS  C:\Users\Admin\AppData\Local\Temp\ccnyUUyZ.s 			page 3


  50 0010 01D1     		bne	.L3
  66:source\asw/statemachine.c ****         {
  67:source\asw/statemachine.c ****             return i;
  51              		.loc 1 67 0
  52 0012 18B2     		sxth	r0, r3
  53              	.LVL3:
  54 0014 05E0     		b	.L4
  55              	.LVL4:
  56              	.L3:
  63:source\asw/statemachine.c ****     {
  57              		.loc 1 63 0 discriminator 2
  58 0016 0133     		adds	r3, r3, #1
  59              	.LVL5:
  60 0018 9BB2     		uxth	r3, r3
  61              	.LVL6:
  62              	.L2:
  63:source\asw/statemachine.c ****     {
  63              		.loc 1 63 0 is_stmt 0 discriminator 1
  64 001a 8B42     		cmp	r3, r1
  65 001c F3D3     		bcc	.L5
  66              	.LBE2:
  68:source\asw/statemachine.c ****         }
  69:source\asw/statemachine.c ****     }
  70:source\asw/statemachine.c ****     
  71:source\asw/statemachine.c ****     return INVALIDINDEX;
  67              		.loc 1 71 0 is_stmt 1
  68 001e 4FF0FF30 		mov	r0, #-1
  69              	.LVL7:
  70              	.L4:
  72:source\asw/statemachine.c **** }
  71              		.loc 1 72 0
  72 0022 30BC     		pop	{r4, r5}
  73              		.cfi_restore 5
  74              		.cfi_restore 4
  75              		.cfi_def_cfa_offset 0
  76 0024 7047     		bx	lr
  77              		.cfi_endproc
  78              	.LFE1:
  79              		.size	STATE__getIndexCurrentState, .-STATE__getIndexCurrentState
  80 0026 00BF     		.section	.text.STATE_initState,"ax",%progbits
  81              		.align	2
  82              		.global	STATE_initState
  83              		.thumb
  84              		.thumb_func
  85              		.type	STATE_initState, %function
  86              	STATE_initState:
  87              	.LFB2:
  73:source\asw/statemachine.c **** 
  74:source\asw/statemachine.c **** /**
  75:source\asw/statemachine.c ****  * This function will initialise the state machine and process any state actions of the initial sta
  76:source\asw/statemachine.c ****  * The state machine is implemented as a generic object, Several instances and configurations are s
  77:source\asw/statemachine.c ****  * \param STATE_stateActionTable_t const * const actionTable            : IN - Pointer to the actio
  78:source\asw/statemachine.c ****  * \param uint16_t actionTableSize                                      : IN - action table size 
  79:source\asw/statemachine.c ****  * \param STATE_state_t state                                           : IN/OUT - Leaving and Resu
  80:source\asw/statemachine.c ****  * \return RC_SUCCESS or error
  81:source\asw/statemachine.c ****  */
  82:source\asw/statemachine.c **** RC_t STATE_initState(   STATE_stateActionTable_t const actionTable, 
ARM GAS  C:\Users\Admin\AppData\Local\Temp\ccnyUUyZ.s 			page 4


  83:source\asw/statemachine.c ****                         uint16_t actionTableSize,
  84:source\asw/statemachine.c ****                         STATE_state_t* state)
  85:source\asw/statemachine.c **** {
  88              		.loc 1 85 0
  89              		.cfi_startproc
  90              		@ args = 0, pretend = 0, frame = 0
  91              		@ frame_needed = 0, uses_anonymous_args = 0
  92              	.LVL8:
  86:source\asw/statemachine.c ****     
  87:source\asw/statemachine.c ****     STATE_ActionPtr_t acEntry = 0;
  88:source\asw/statemachine.c ****     
  89:source\asw/statemachine.c ****     *state = STATE_INITIALSTATE;
  93              		.loc 1 89 0
  94 0000 0023     		movs	r3, #0
  95 0002 1370     		strb	r3, [r2]
  90:source\asw/statemachine.c ****     
  91:source\asw/statemachine.c ****     //Check if entry actios are present in the init state
  92:source\asw/statemachine.c ****     if (0 != actionTable)
  96              		.loc 1 92 0
  97 0004 60B9     		cbnz	r0, .L12
  98              	.LVL9:
  93:source\asw/statemachine.c ****     {
  94:source\asw/statemachine.c ****         for (uint16_t j = 0; j < actionTableSize; j++)
  95:source\asw/statemachine.c ****         {
  96:source\asw/statemachine.c **** 
  97:source\asw/statemachine.c ****             if (STATE_INITIALSTATE == actionTable[j].state)
  98:source\asw/statemachine.c ****             {
  99:source\asw/statemachine.c ****                 acEntry = actionTable[j].actionEntry;
 100:source\asw/statemachine.c ****                 if (0 != acEntry) acEntry();
 101:source\asw/statemachine.c ****             }
 102:source\asw/statemachine.c ****         }
 103:source\asw/statemachine.c ****     }
 104:source\asw/statemachine.c ****     
 105:source\asw/statemachine.c **** }
  99              		.loc 1 105 0
 100 0006 7047     		bx	lr
 101              	.LVL10:
 102              	.L11:
 103              		.cfi_def_cfa_offset 16
 104              		.cfi_offset 4, -16
 105              		.cfi_offset 5, -12
 106              		.cfi_offset 6, -8
 107              		.cfi_offset 14, -4
 108              	.LBB3:
  97:source\asw/statemachine.c ****             {
 109              		.loc 1 97 0
 110 0008 04EB4402 		add	r2, r4, r4, lsl #1
 111 000c 9300     		lsls	r3, r2, #2
 112 000e EA18     		adds	r2, r5, r3
 113 0010 EB5C     		ldrb	r3, [r5, r3]	@ zero_extendqisi2
 114 0012 13B9     		cbnz	r3, .L10
  99:source\asw/statemachine.c ****                 if (0 != acEntry) acEntry();
 115              		.loc 1 99 0
 116 0014 5368     		ldr	r3, [r2, #4]
 117              	.LVL11:
 100:source\asw/statemachine.c ****             }
 118              		.loc 1 100 0
ARM GAS  C:\Users\Admin\AppData\Local\Temp\ccnyUUyZ.s 			page 5


 119 0016 03B1     		cbz	r3, .L10
 100:source\asw/statemachine.c ****             }
 120              		.loc 1 100 0 is_stmt 0 discriminator 1
 121 0018 9847     		blx	r3
 122              	.LVL12:
 123              	.L10:
  94:source\asw/statemachine.c ****         {
 124              		.loc 1 94 0 is_stmt 1 discriminator 2
 125 001a 0134     		adds	r4, r4, #1
 126              	.LVL13:
 127 001c A4B2     		uxth	r4, r4
 128              	.LVL14:
 129 001e 03E0     		b	.L8
 130              	.LVL15:
 131              	.L12:
 132              		.cfi_def_cfa_offset 0
 133              		.cfi_restore 4
 134              		.cfi_restore 5
 135              		.cfi_restore 6
 136              		.cfi_restore 14
 137              	.LBE3:
  85:source\asw/statemachine.c ****     
 138              		.loc 1 85 0
 139 0020 70B5     		push	{r4, r5, r6, lr}
 140              		.cfi_def_cfa_offset 16
 141              		.cfi_offset 4, -16
 142              		.cfi_offset 5, -12
 143              		.cfi_offset 6, -8
 144              		.cfi_offset 14, -4
 145 0022 0546     		mov	r5, r0
 146 0024 0E46     		mov	r6, r1
 147 0026 0024     		movs	r4, #0
 148              	.LVL16:
 149              	.L8:
 150              	.LBB4:
  94:source\asw/statemachine.c ****         {
 151              		.loc 1 94 0 discriminator 1
 152 0028 B442     		cmp	r4, r6
 153 002a EDD3     		bcc	.L11
 154              	.LBE4:
 155              		.loc 1 105 0
 156 002c 70BD     		pop	{r4, r5, r6, pc}
 157              		.cfi_endproc
 158              	.LFE2:
 159              		.size	STATE_initState, .-STATE_initState
 160 002e 00BF     		.section	.text.STATE_processEvent,"ax",%progbits
 161              		.align	2
 162              		.global	STATE_processEvent
 163              		.thumb
 164              		.thumb_func
 165              		.type	STATE_processEvent, %function
 166              	STATE_processEvent:
 167              	.LFB3:
 106:source\asw/statemachine.c **** 
 107:source\asw/statemachine.c **** /**
 108:source\asw/statemachine.c ****  * This function will process the event with the defined state machine
 109:source\asw/statemachine.c ****  * The state machine is implemented as a generic object, Several instances and configurations are s
ARM GAS  C:\Users\Admin\AppData\Local\Temp\ccnyUUyZ.s 			page 6


 110:source\asw/statemachine.c ****  * \param STATE_stateTransitionTable_t const * const transitionTable    : IN - Pointer to the trans
 111:source\asw/statemachine.c ****  * \param uint16_t transitionTableSize                                  : IN - transition table siz
 112:source\asw/statemachine.c ****  * \param STATE_stateActionTable_t const * const actionTable            : IN - Pointer to the actio
 113:source\asw/statemachine.c ****  * \param uint16_t actionTableSize                                      : IN - action table size 
 114:source\asw/statemachine.c ****  * \param STATE_event_t ev                                              : IN - Event to be processe
 115:source\asw/statemachine.c ****  * \param STATE_state_t state                                           : IN/OUT - Leaving and Resu
 116:source\asw/statemachine.c ****  * \return RC_SUCCESS or error
 117:source\asw/statemachine.c ****  */
 118:source\asw/statemachine.c **** RC_t STATE_processEvent(STATE_stateOuterTransitionTable_t const  transitionTable,
 119:source\asw/statemachine.c ****                         uint16_t transitionTableSize,
 120:source\asw/statemachine.c ****                         STATE_stateActionTable_t const actionTable, 
 121:source\asw/statemachine.c ****                         uint16_t actionTableSize,
 122:source\asw/statemachine.c ****                         STATE_event_t ev,
 123:source\asw/statemachine.c ****                         STATE_state_t* state)
 124:source\asw/statemachine.c **** {
 168              		.loc 1 124 0
 169              		.cfi_startproc
 170              		@ args = 8, pretend = 0, frame = 0
 171              		@ frame_needed = 0, uses_anonymous_args = 0
 172              	.LVL17:
 173 0000 2DE9F84F 		push	{r3, r4, r5, r6, r7, r8, r9, r10, fp, lr}
 174              		.cfi_def_cfa_offset 40
 175              		.cfi_offset 3, -40
 176              		.cfi_offset 4, -36
 177              		.cfi_offset 5, -32
 178              		.cfi_offset 6, -28
 179              		.cfi_offset 7, -24
 180              		.cfi_offset 8, -20
 181              		.cfi_offset 9, -16
 182              		.cfi_offset 10, -12
 183              		.cfi_offset 11, -8
 184              		.cfi_offset 14, -4
 185 0004 0446     		mov	r4, r0
 186 0006 9146     		mov	r9, r2
 187 0008 9A46     		mov	r10, r3
 188 000a 9DF82880 		ldrb	r8, [sp, #40]	@ zero_extendqisi2
 189              	.LVL18:
 125:source\asw/statemachine.c ****     STATE_GuardPtr_t guard = 0;
 126:source\asw/statemachine.c ****     STATE_ActionPtr_t acTransition = 0;
 127:source\asw/statemachine.c ****     STATE_ActionPtr_t acEntry = 0;
 128:source\asw/statemachine.c ****     STATE_ActionPtr_t acExit = 0;
 129:source\asw/statemachine.c ****     
 130:source\asw/statemachine.c ****     
 131:source\asw/statemachine.c ****     //Read the state from the watchdog object;
 132:source\asw/statemachine.c ****     STATE_state_t currentState = *state;
 190              		.loc 1 132 0
 191 000e 0B9B     		ldr	r3, [sp, #44]
 192              	.LVL19:
 193 0010 93F800B0 		ldrb	fp, [r3]	@ zero_extendqisi2
 194              	.LVL20:
 133:source\asw/statemachine.c ****     STATE_state_t toState = currentState; //Just in case
 134:source\asw/statemachine.c ****     
 135:source\asw/statemachine.c ****     //Calculate the table index of the outer table
 136:source\asw/statemachine.c **** 
 137:source\asw/statemachine.c ****     sint16_t index = STATE__getIndexCurrentState(transitionTable, transitionTableSize, currentState
 195              		.loc 1 137 0
 196 0014 5A46     		mov	r2, fp
ARM GAS  C:\Users\Admin\AppData\Local\Temp\ccnyUUyZ.s 			page 7


 197              	.LVL21:
 198 0016 FFF7FEFF 		bl	STATE__getIndexCurrentState
 199              	.LVL22:
 138:source\asw/statemachine.c ****     
 139:source\asw/statemachine.c ****     //This should never happen
 140:source\asw/statemachine.c ****     if (INVALIDINDEX == index)
 200              		.loc 1 140 0
 201 001a B0F1FF3F 		cmp	r0, #-1
 202 001e 60D0     		beq	.L30
 141:source\asw/statemachine.c ****     {
 142:source\asw/statemachine.c ****         return RC_ERROR_BAD_PARAM;
 143:source\asw/statemachine.c ****     }
 144:source\asw/statemachine.c ****     
 145:source\asw/statemachine.c ****     STATE_stateInnerTransitionTable_t const* const pInnerTable = transitionTable[index].pInnerTrans
 203              		.loc 1 145 0
 204 0020 00EB4000 		add	r0, r0, r0, lsl #1
 205              	.LVL23:
 206 0024 8300     		lsls	r3, r0, #2
 207 0026 1C44     		add	r4, r4, r3
 208              	.LVL24:
 209 0028 6568     		ldr	r5, [r4, #4]
 210              	.LVL25:
 146:source\asw/statemachine.c **** 	
 147:source\asw/statemachine.c ****     uint16_t innerTableSize = 0;
 148:source\asw/statemachine.c **** 	if (0 != pInnerTable)
 211              		.loc 1 148 0
 212 002a 0DB1     		cbz	r5, .L31
 149:source\asw/statemachine.c **** 	{
 150:source\asw/statemachine.c **** 		innerTableSize = transitionTable[index].size;
 213              		.loc 1 150 0
 214 002c 2689     		ldrh	r6, [r4, #8]
 215              	.LVL26:
 216 002e 00E0     		b	.L16
 217              	.LVL27:
 218              	.L31:
 147:source\asw/statemachine.c **** 	if (0 != pInnerTable)
 219              		.loc 1 147 0
 220 0030 0026     		movs	r6, #0
 221              	.LVL28:
 222              	.L16:
 151:source\asw/statemachine.c **** 	}
 152:source\asw/statemachine.c ****     
 153:source\asw/statemachine.c ****     if (0 == pInnerTable || 0 == innerTableSize)
 223              		.loc 1 153 0
 224 0032 002D     		cmp	r5, #0
 225 0034 59D0     		beq	.L32
 226              		.loc 1 153 0 is_stmt 0 discriminator 1
 227 0036 002E     		cmp	r6, #0
 228 0038 5BD0     		beq	.L33
 229 003a 0024     		movs	r4, #0
 230 003c 4CE0     		b	.L17
 231              	.LVL29:
 232              	.L29:
 233              	.LBB5:
 154:source\asw/statemachine.c ****     {
 155:source\asw/statemachine.c ****         //No transitions in this state
 156:source\asw/statemachine.c ****         return RC_ERROR_INVALID_STATE;
ARM GAS  C:\Users\Admin\AppData\Local\Temp\ccnyUUyZ.s 			page 8


 157:source\asw/statemachine.c ****     }
 158:source\asw/statemachine.c ****     
 159:source\asw/statemachine.c ****     //Iterate through the inner table and find correct transition
 160:source\asw/statemachine.c ****     for (uint16_t i = 0; i < innerTableSize; i++)
 161:source\asw/statemachine.c ****     {
 162:source\asw/statemachine.c ****         if ((*pInnerTable)[i].event == ev)
 234              		.loc 1 162 0 is_stmt 1
 235 003e 2746     		mov	r7, r4
 236 0040 04EB4402 		add	r2, r4, r4, lsl #1
 237 0044 9300     		lsls	r3, r2, #2
 238 0046 EB5C     		ldrb	r3, [r5, r3]	@ zero_extendqisi2
 239 0048 4345     		cmp	r3, r8
 240 004a 43D1     		bne	.L18
 163:source\asw/statemachine.c ****         {
 164:source\asw/statemachine.c ****             //Transition found, let's check the guard
 165:source\asw/statemachine.c ****             guard = (*pInnerTable)[i].guard;
 241              		.loc 1 165 0
 242 004c 04EB4402 		add	r2, r4, r4, lsl #1
 243 0050 9300     		lsls	r3, r2, #2
 244 0052 2B44     		add	r3, r3, r5
 245 0054 5B68     		ldr	r3, [r3, #4]
 246              	.LVL30:
 166:source\asw/statemachine.c ****             if (0 == guard || TRUE == guard())
 247              		.loc 1 166 0
 248 0056 13B1     		cbz	r3, .L19
 249              		.loc 1 166 0 is_stmt 0 discriminator 1
 250 0058 9847     		blx	r3
 251              	.LVL31:
 252 005a 0128     		cmp	r0, #1
 253 005c 3AD1     		bne	.L18
 254              	.L19:
 167:source\asw/statemachine.c ****             {
 168:source\asw/statemachine.c ****                 //Transition is valid
 169:source\asw/statemachine.c ****                 acTransition = (*pInnerTable)[i].actionTransition;
 255              		.loc 1 169 0 is_stmt 1
 256 005e 7A00     		lsls	r2, r7, #1
 257 0060 D119     		adds	r1, r2, r7
 258 0062 8B00     		lsls	r3, r1, #2
 259 0064 1946     		mov	r1, r3
 260 0066 2B44     		add	r3, r3, r5
 261 0068 9C68     		ldr	r4, [r3, #8]
 262              	.LVL32:
 170:source\asw/statemachine.c ****                 toState = (*pInnerTable)[i].toState;
 263              		.loc 1 170 0
 264 006a 0D44     		add	r5, r5, r1
 265              	.LVL33:
 266 006c 6E78     		ldrb	r6, [r5, #1]	@ zero_extendqisi2
 267              	.LVL34:
 171:source\asw/statemachine.c ****                 
 172:source\asw/statemachine.c ****                 //Now lets find exit actions. Note: their might be more than one
 173:source\asw/statemachine.c ****                 if (0 != actionTable)
 268              		.loc 1 173 0
 269 006e B9F1000F 		cmp	r9, #0
 270 0072 0FD1     		bne	.L34
 271              	.LBB6:
 272 0074 11E0     		b	.L21
 273              	.LVL35:
ARM GAS  C:\Users\Admin\AppData\Local\Temp\ccnyUUyZ.s 			page 9


 274              	.L23:
 174:source\asw/statemachine.c ****                 {
 175:source\asw/statemachine.c ****                     for (uint16_t j = 0; j < actionTableSize; j++)
 176:source\asw/statemachine.c ****                     {
 177:source\asw/statemachine.c ****                         if (currentState == actionTable[j].state)
 275              		.loc 1 177 0
 276 0076 05EB4502 		add	r2, r5, r5, lsl #1
 277 007a 9300     		lsls	r3, r2, #2
 278 007c 09EB0302 		add	r2, r9, r3
 279 0080 19F80330 		ldrb	r3, [r9, r3]	@ zero_extendqisi2
 280 0084 9B45     		cmp	fp, r3
 281 0086 02D1     		bne	.L22
 178:source\asw/statemachine.c ****                         {
 179:source\asw/statemachine.c ****                             acExit = actionTable[j].actionExit;
 282              		.loc 1 179 0
 283 0088 9368     		ldr	r3, [r2, #8]
 284              	.LVL36:
 180:source\asw/statemachine.c ****                             if (0 != acExit) acExit();
 285              		.loc 1 180 0
 286 008a 03B1     		cbz	r3, .L22
 287              		.loc 1 180 0 is_stmt 0 discriminator 1
 288 008c 9847     		blx	r3
 289              	.LVL37:
 290              	.L22:
 175:source\asw/statemachine.c ****                     {
 291              		.loc 1 175 0 is_stmt 1 discriminator 2
 292 008e 0135     		adds	r5, r5, #1
 293              	.LVL38:
 294 0090 ADB2     		uxth	r5, r5
 295              	.LVL39:
 296 0092 00E0     		b	.L20
 297              	.LVL40:
 298              	.L34:
 299              	.LBE6:
 300 0094 0025     		movs	r5, #0
 301              	.LVL41:
 302              	.L20:
 303              	.LBB7:
 175:source\asw/statemachine.c ****                     {
 304              		.loc 1 175 0 is_stmt 0 discriminator 1
 305 0096 5545     		cmp	r5, r10
 306 0098 EDD3     		bcc	.L23
 307              	.LVL42:
 308              	.L21:
 309              	.LBE7:
 181:source\asw/statemachine.c ****                         }
 182:source\asw/statemachine.c ****                     }
 183:source\asw/statemachine.c ****                 }
 184:source\asw/statemachine.c **** 
 185:source\asw/statemachine.c ****                 //Lets call the transition action
 186:source\asw/statemachine.c ****                 if (0 != acTransition) acTransition();
 310              		.loc 1 186 0 is_stmt 1
 311 009a 04B1     		cbz	r4, .L24
 312              		.loc 1 186 0 is_stmt 0 discriminator 1
 313 009c A047     		blx	r4
 314              	.LVL43:
 315              	.L24:
ARM GAS  C:\Users\Admin\AppData\Local\Temp\ccnyUUyZ.s 			page 10


 187:source\asw/statemachine.c ****                 
 188:source\asw/statemachine.c ****                 //Now lets find the entry actions. Note: their might be more than one
 189:source\asw/statemachine.c ****                 if (0 != actionTable)
 316              		.loc 1 189 0 is_stmt 1
 317 009e B9F1000F 		cmp	r9, #0
 318 00a2 0FD1     		bne	.L35
 319              	.LBB8:
 320 00a4 11E0     		b	.L26
 321              	.LVL44:
 322              	.L28:
 190:source\asw/statemachine.c ****                 {
 191:source\asw/statemachine.c ****                     for (uint16_t j = 0; j < actionTableSize; j++)
 192:source\asw/statemachine.c ****                     {
 193:source\asw/statemachine.c **** 
 194:source\asw/statemachine.c ****                         if (toState == actionTable[j].state)
 323              		.loc 1 194 0
 324 00a6 04EB4402 		add	r2, r4, r4, lsl #1
 325 00aa 9300     		lsls	r3, r2, #2
 326 00ac 09EB0302 		add	r2, r9, r3
 327 00b0 19F80330 		ldrb	r3, [r9, r3]	@ zero_extendqisi2
 328 00b4 9E42     		cmp	r6, r3
 329 00b6 02D1     		bne	.L27
 195:source\asw/statemachine.c ****                         {
 196:source\asw/statemachine.c ****                             acEntry = actionTable[j].actionEntry;
 330              		.loc 1 196 0
 331 00b8 5368     		ldr	r3, [r2, #4]
 332              	.LVL45:
 197:source\asw/statemachine.c ****                             if (0 != acEntry) acEntry();
 333              		.loc 1 197 0
 334 00ba 03B1     		cbz	r3, .L27
 335              		.loc 1 197 0 is_stmt 0 discriminator 1
 336 00bc 9847     		blx	r3
 337              	.LVL46:
 338              	.L27:
 191:source\asw/statemachine.c ****                     {
 339              		.loc 1 191 0 is_stmt 1 discriminator 2
 340 00be 0134     		adds	r4, r4, #1
 341              	.LVL47:
 342 00c0 A4B2     		uxth	r4, r4
 343              	.LVL48:
 344 00c2 00E0     		b	.L25
 345              	.LVL49:
 346              	.L35:
 347              	.LBE8:
 348 00c4 0024     		movs	r4, #0
 349              	.LVL50:
 350              	.L25:
 351              	.LBB9:
 191:source\asw/statemachine.c ****                     {
 352              		.loc 1 191 0 is_stmt 0 discriminator 1
 353 00c6 5445     		cmp	r4, r10
 354 00c8 EDD3     		bcc	.L28
 355              	.LVL51:
 356              	.L26:
 357              	.LBE9:
 198:source\asw/statemachine.c ****                         }
 199:source\asw/statemachine.c ****                     }
ARM GAS  C:\Users\Admin\AppData\Local\Temp\ccnyUUyZ.s 			page 11


 200:source\asw/statemachine.c ****                 }
 201:source\asw/statemachine.c ****                 
 202:source\asw/statemachine.c ****                 *state = toState;
 358              		.loc 1 202 0 is_stmt 1
 359 00ca 0B9B     		ldr	r3, [sp, #44]
 360 00cc 1E70     		strb	r6, [r3]
 361              	.LBE5:
 203:source\asw/statemachine.c ****                 
 204:source\asw/statemachine.c ****                 //Only one transition will be fired
 205:source\asw/statemachine.c ****                 break;
 206:source\asw/statemachine.c ****             }
 207:source\asw/statemachine.c ****         }
 208:source\asw/statemachine.c ****     }
 209:source\asw/statemachine.c ****     
 210:source\asw/statemachine.c **** 
 211:source\asw/statemachine.c ****     
 212:source\asw/statemachine.c ****  
 213:source\asw/statemachine.c ****     return RC_SUCCESS;
 362              		.loc 1 213 0
 363 00ce 0020     		movs	r0, #0
 364              	.LBB10:
 205:source\asw/statemachine.c ****             }
 365              		.loc 1 205 0
 366 00d0 BDE8F88F 		pop	{r3, r4, r5, r6, r7, r8, r9, r10, fp, pc}
 367              	.LVL52:
 368              	.L18:
 160:source\asw/statemachine.c ****     {
 369              		.loc 1 160 0 discriminator 2
 370 00d4 0134     		adds	r4, r4, #1
 371              	.LVL53:
 372 00d6 A4B2     		uxth	r4, r4
 373              	.LVL54:
 374              	.L17:
 160:source\asw/statemachine.c ****     {
 375              		.loc 1 160 0 is_stmt 0 discriminator 1
 376 00d8 A642     		cmp	r6, r4
 377 00da B0D8     		bhi	.L29
 378              	.LBE10:
 379              		.loc 1 213 0 is_stmt 1
 380 00dc 0020     		movs	r0, #0
 381              	.LBB11:
 382 00de BDE8F88F 		pop	{r3, r4, r5, r6, r7, r8, r9, r10, fp, pc}
 383              	.LVL55:
 384              	.L30:
 385              	.LBE11:
 142:source\asw/statemachine.c ****     }
 386              		.loc 1 142 0
 387 00e2 6FF01300 		mvn	r0, #19
 388              	.LVL56:
 389 00e6 BDE8F88F 		pop	{r3, r4, r5, r6, r7, r8, r9, r10, fp, pc}
 390              	.LVL57:
 391              	.L32:
 156:source\asw/statemachine.c ****     }
 392              		.loc 1 156 0
 393 00ea 6FF01600 		mvn	r0, #22
 394 00ee BDE8F88F 		pop	{r3, r4, r5, r6, r7, r8, r9, r10, fp, pc}
 395              	.LVL58:
ARM GAS  C:\Users\Admin\AppData\Local\Temp\ccnyUUyZ.s 			page 12


 396              	.L33:
 397 00f2 6FF01600 		mvn	r0, #22
 214:source\asw/statemachine.c **** }
 398              		.loc 1 214 0
 399 00f6 BDE8F88F 		pop	{r3, r4, r5, r6, r7, r8, r9, r10, fp, pc}
 400              		.cfi_endproc
 401              	.LFE3:
 402              		.size	STATE_processEvent, .-STATE_processEvent
 403 00fa 00BF     		.text
 404              	.Letext0:
 405              		.file 2 ".\\source\\bsw/global.h"
 406              		.file 3 "source\\asw\\clock_type.h"
 407              		.file 4 "source\\asw\\statemachine.h"