ARM GAS  C:\Users\Admin\AppData\Local\Temp\cc7OBmIc.s 			page 1


   1              		.syntax unified
   2              		.cpu cortex-m3
   3              		.fpu softvfp
   4              		.eabi_attribute 20, 1
   5              		.eabi_attribute 21, 1
   6              		.eabi_attribute 23, 3
   7              		.eabi_attribute 24, 1
   8              		.eabi_attribute 25, 1
   9              		.eabi_attribute 26, 1
  10              		.eabi_attribute 30, 1
  11              		.eabi_attribute 34, 1
  12              		.eabi_attribute 18, 4
  13              		.thumb
  14              		.syntax unified
  15              		.file	"swc_display.c"
  16              		.text
  17              	.Ltext0:
  18              		.cfi_sections	.debug_frame
  19              		.section	.text.DISPLAY_Clock_display_run,"ax",%progbits
  20              		.align	2
  21              		.global	DISPLAY_Clock_display_run
  22              		.thumb
  23              		.thumb_func
  24              		.type	DISPLAY_Clock_display_run, %function
  25              	DISPLAY_Clock_display_run:
  26              	.LFB144:
  27              		.file 1 "source\\asw\\swc_display.c"
   1:source\asw/swc_display.c **** /*
   2:source\asw/swc_display.c ****  * Filename: swc_display.c
   3:source\asw/swc_display.c ****  *
   4:source\asw/swc_display.c ****  * Author: Autogenerated by H-DA RTE Generator, (c) Prof. Fromm
   5:source\asw/swc_display.c ****  *
   6:source\asw/swc_display.c ****  * description: Software component for display
   7:source\asw/swc_display.c ****  * name: swc_Display
   8:source\asw/swc_display.c ****  * shortname: Display
   9:source\asw/swc_display.c ****  *
  10:source\asw/swc_display.c ****  */
  11:source\asw/swc_display.c **** 
  12:source\asw/swc_display.c **** #include "project.h"
  13:source\asw/swc_display.c **** #include "global.h"
  14:source\asw/swc_display.c **** #include "rte.h"
  15:source\asw/swc_display.c **** #include "rte_types.h"
  16:source\asw/swc_display.c **** #include "swc_display.h"
  17:source\asw/swc_display.c **** 
  18:source\asw/swc_display.c **** 
  19:source\asw/swc_display.c **** 
  20:source\asw/swc_display.c **** /* USER CODE START SWC_DISPLAY_INCLUDE */
  21:source\asw/swc_display.c **** 
  22:source\asw/swc_display.c **** /* USER CODE END SWC_DISPLAY_INCLUDE */
  23:source\asw/swc_display.c **** 
  24:source\asw/swc_display.c **** 
  25:source\asw/swc_display.c **** #include "sp_common.h"
  26:source\asw/swc_display.c **** 
  27:source\asw/swc_display.c **** /* USER CODE START SWC_DISPLAY_USERDEFINITIONS */
  28:source\asw/swc_display.c **** #include "clock.h"
  29:source\asw/swc_display.c **** /* USER CODE END SWC_DISPLAY_USERDEFINITIONS */
  30:source\asw/swc_display.c **** 
ARM GAS  C:\Users\Admin\AppData\Local\Temp\cc7OBmIc.s 			page 2


  31:source\asw/swc_display.c **** 
  32:source\asw/swc_display.c **** 
  33:source\asw/swc_display.c **** /*
  34:source\asw/swc_display.c ****  * component: swc_Display
  35:source\asw/swc_display.c ****  * cycletime: 250
  36:source\asw/swc_display.c ****  * description: Runnable for TFT disply
  37:source\asw/swc_display.c ****  * events: 
  38:source\asw/swc_display.c ****  * name: DISPLAY_Clock_display_run
  39:source\asw/swc_display.c ****  * shortname: Clock_display
  40:source\asw/swc_display.c ****  * signalIN: so_Control
  41:source\asw/swc_display.c ****  * signalOUT: so_DisplayTFT
  42:source\asw/swc_display.c ****  * task: tsk_io
  43:source\asw/swc_display.c ****  */
  44:source\asw/swc_display.c **** void DISPLAY_Clock_display_run(RTE_event ev){
  28              		.loc 1 44 0
  29              		.cfi_startproc
  30              		@ args = 0, pretend = 0, frame = 48
  31              		@ frame_needed = 0, uses_anonymous_args = 0
  32              	.LVL0:
  33 0000 70B5     		push	{r4, r5, r6, lr}
  34              		.cfi_def_cfa_offset 16
  35              		.cfi_offset 4, -16
  36              		.cfi_offset 5, -12
  37              		.cfi_offset 6, -8
  38              		.cfi_offset 14, -4
  39 0002 8CB0     		sub	sp, sp, #48
  40              		.cfi_def_cfa_offset 64
  45:source\asw/swc_display.c **** 	
  46:source\asw/swc_display.c **** 	/* USER CODE START DISPLAY_Clock_display_run */
  47:source\asw/swc_display.c ****     SC_DISPLAY_data_t    tft_data  =   SC_DISPLAY_INIT_DATA;    
  41              		.loc 1 47 0
  42 0004 08AD     		add	r5, sp, #32
  43              	.LVL1:
  44              	.LBB9:
  45              	.LBB10:
  46              		.file 2 ".\\source\\rte/sc_control.h"
   1:.\source\rte/sc_control.h **** 
   2:.\source\rte/sc_control.h **** 
   3:.\source\rte/sc_control.h **** /**
   4:.\source\rte/sc_control.h ****  *  file    SC_CONTROL_signal.h
   5:.\source\rte/sc_control.h ****  *
   6:.\source\rte/sc_control.h ****  *  brief   signal base class for signal sc_control
   7:.\source\rte/sc_control.h ****  *
   8:.\source\rte/sc_control.h ****  *  author  Autogenerated, Peter Fromm       <peter.fromm@h-da.de>
   9:.\source\rte/sc_control.h ****  *
  10:.\source\rte/sc_control.h ****  * description: Signal class for control logic
  11:.\source\rte/sc_control.h ****  * name: sc_Control
  12:.\source\rte/sc_control.h ****  * shortname: Control
  13:.\source\rte/sc_control.h ****  *
  14:.\source\rte/sc_control.h ****  */
  15:.\source\rte/sc_control.h **** 
  16:.\source\rte/sc_control.h **** 
  17:.\source\rte/sc_control.h **** 
  18:.\source\rte/sc_control.h **** #ifndef SC_CONTROL_SIGNAL_H_INCLUDED
  19:.\source\rte/sc_control.h **** #define SC_CONTROL_SIGNAL_H_INCLUDED
  20:.\source\rte/sc_control.h **** 
  21:.\source\rte/sc_control.h **** /*================================================[ public includes  ]=============================
ARM GAS  C:\Users\Admin\AppData\Local\Temp\cc7OBmIc.s 			page 3


  22:.\source\rte/sc_control.h **** #include "global.h"
  23:.\source\rte/sc_control.h **** #include "project.h"
  24:.\source\rte/sc_control.h **** #include "rte.h"
  25:.\source\rte/sc_control.h **** #include "rte_types.h"
  26:.\source\rte/sc_control.h **** 
  27:.\source\rte/sc_control.h **** #include "sc_control_type.h"
  28:.\source\rte/sc_control.h **** 
  29:.\source\rte/sc_control.h **** 
  30:.\source\rte/sc_control.h **** /**************************************************************************************************
  31:.\source\rte/sc_control.h **** /* The driver API block																						*/
  32:.\source\rte/sc_control.h **** /**************************************************************************************************
  33:.\source\rte/sc_control.h ****                                                                                                    
  34:.\source\rte/sc_control.h **** /**
  35:.\source\rte/sc_control.h ****  *  Definition of function types for driver interfaces.
  36:.\source\rte/sc_control.h ****  *  I-Port
  37:.\source\rte/sc_control.h ****  */
  38:.\source\rte/sc_control.h **** typedef RC_t (*SC_CONTROL_driverIn_t)(SC_CONTROL_data_t * const);
  39:.\source\rte/sc_control.h **** 
  40:.\source\rte/sc_control.h **** /**
  41:.\source\rte/sc_control.h ****  *  Definition of function types for driver interfaces.
  42:.\source\rte/sc_control.h ****  *  O-Port
  43:.\source\rte/sc_control.h ****  */
  44:.\source\rte/sc_control.h **** typedef RC_t (*SC_CONTROL_driverOut_t)( const SC_CONTROL_data_t * const);
  45:.\source\rte/sc_control.h **** 
  46:.\source\rte/sc_control.h **** 
  47:.\source\rte/sc_control.h **** /**************************************************************************************************
  48:.\source\rte/sc_control.h **** /* The signal configuration API block																				*/
  49:.\source\rte/sc_control.h **** /**************************************************************************************************
  50:.\source\rte/sc_control.h **** 
  51:.\source\rte/sc_control.h **** /**
  52:.\source\rte/sc_control.h ****  * Instances of the struct SC_CONTROL_cfg_t represent the signal object configuration.
  53:.\source\rte/sc_control.h ****  */
  54:.\source\rte/sc_control.h **** struct SC_CONTROL_cfg_s
  55:.\source\rte/sc_control.h **** {
  56:.\source\rte/sc_control.h ****     /**
  57:.\source\rte/sc_control.h ****      * Function pointer to the input driver
  58:.\source\rte/sc_control.h ****      */
  59:.\source\rte/sc_control.h ****     SC_CONTROL_driverIn_t const inDriver;
  60:.\source\rte/sc_control.h **** 
  61:.\source\rte/sc_control.h ****     /**
  62:.\source\rte/sc_control.h ****      * Function pointer to the output driver table
  63:.\source\rte/sc_control.h ****      */
  64:.\source\rte/sc_control.h ****    SC_CONTROL_driverOut_t const outDriver;
  65:.\source\rte/sc_control.h ****    
  66:.\source\rte/sc_control.h ****     /**
  67:.\source\rte/sc_control.h ****      * Event onUpdate
  68:.\source\rte/sc_control.h ****      */
  69:.\source\rte/sc_control.h ****     EventMaskType const evOnUpdate;
  70:.\source\rte/sc_control.h ****     
  71:.\source\rte/sc_control.h ****     
  72:.\source\rte/sc_control.h ****     /**
  73:.\source\rte/sc_control.h ****      * Event onError
  74:.\source\rte/sc_control.h ****      */
  75:.\source\rte/sc_control.h ****     EventMaskType const evOnError;
  76:.\source\rte/sc_control.h ****     
  77:.\source\rte/sc_control.h ****     /**
  78:.\source\rte/sc_control.h ****      * Task Count onUpdate
ARM GAS  C:\Users\Admin\AppData\Local\Temp\cc7OBmIc.s 			page 4


  79:.\source\rte/sc_control.h ****      */
  80:.\source\rte/sc_control.h ****     size_t const onUpdateTaskCount;
  81:.\source\rte/sc_control.h **** 
  82:.\source\rte/sc_control.h ****     /**
  83:.\source\rte/sc_control.h ****      * Task List onUpdate
  84:.\source\rte/sc_control.h ****      */
  85:.\source\rte/sc_control.h ****     TaskTypeArray* const onUpdateTasks;
  86:.\source\rte/sc_control.h ****     
  87:.\source\rte/sc_control.h ****     /**
  88:.\source\rte/sc_control.h ****      * Task Count onError
  89:.\source\rte/sc_control.h ****      */
  90:.\source\rte/sc_control.h ****     size_t const onErrorTaskCount;
  91:.\source\rte/sc_control.h **** 
  92:.\source\rte/sc_control.h ****     /**
  93:.\source\rte/sc_control.h ****      * Task List onError
  94:.\source\rte/sc_control.h ****      */
  95:.\source\rte/sc_control.h ****     TaskTypeArray* const onErrorTasks;
  96:.\source\rte/sc_control.h **** 	
  97:.\source\rte/sc_control.h **** 	
  98:.\source\rte/sc_control.h **** 	/**
  99:.\source\rte/sc_control.h **** 	 * Ressourse is active? We need an additional boolean as a ressource value 0 is valid.
 100:.\source\rte/sc_control.h **** 	 */
 101:.\source\rte/sc_control.h **** 	 boolean_t const resourceActive;
 102:.\source\rte/sc_control.h **** 	 
 103:.\source\rte/sc_control.h **** 	/**
 104:.\source\rte/sc_control.h **** 	 * Ressourse 
 105:.\source\rte/sc_control.h **** 	 */
 106:.\source\rte/sc_control.h **** 	 ResourceType const resource;
 107:.\source\rte/sc_control.h **** 
 108:.\source\rte/sc_control.h **** };                                                                                                 
 109:.\source\rte/sc_control.h **** typedef const struct SC_CONTROL_cfg_s SC_CONTROL_cfg_t;
 110:.\source\rte/sc_control.h ****                               
 111:.\source\rte/sc_control.h **** /**************************************************************************************************
 112:.\source\rte/sc_control.h **** /* The data interface block																							*/
 113:.\source\rte/sc_control.h **** /**************************************************************************************************
 114:.\source\rte/sc_control.h **** 
 115:.\source\rte/sc_control.h ****                                                                                                    
 116:.\source\rte/sc_control.h **** 							  
 117:.\source\rte/sc_control.h **** /**
 118:.\source\rte/sc_control.h ****  * Instances of the struct SC_CONTROL_t represent the signal objects.
 119:.\source\rte/sc_control.h ****  * A signal object contains the current application value 'value' as well as relevant meta data.
 120:.\source\rte/sc_control.h ****  */
 121:.\source\rte/sc_control.h **** struct SC_CONTROL_s
 122:.\source\rte/sc_control.h **** {                                                                                                  
 123:.\source\rte/sc_control.h **** 
 124:.\source\rte/sc_control.h **** 	/**
 125:.\source\rte/sc_control.h **** 	 * Data buffer for the application value
 126:.\source\rte/sc_control.h **** 	 */
 127:.\source\rte/sc_control.h ****     SC_CONTROL_data_t value;
 128:.\source\rte/sc_control.h **** 
 129:.\source\rte/sc_control.h ****     /**
 130:.\source\rte/sc_control.h ****      * Current signal status
 131:.\source\rte/sc_control.h ****      */
 132:.\source\rte/sc_control.h ****     RTE_signalStatus_t status;
 133:.\source\rte/sc_control.h **** 
 134:.\source\rte/sc_control.h ****     /**
 135:.\source\rte/sc_control.h ****      * Current age of the signal (in calling cycles)
ARM GAS  C:\Users\Admin\AppData\Local\Temp\cc7OBmIc.s 			page 5


 136:.\source\rte/sc_control.h ****      */
 137:.\source\rte/sc_control.h ****     uint32_t age;
 138:.\source\rte/sc_control.h **** 
 139:.\source\rte/sc_control.h ****     /**
 140:.\source\rte/sc_control.h ****      * Pointer to the signal configuration
 141:.\source\rte/sc_control.h ****      */
 142:.\source\rte/sc_control.h **** 	const SC_CONTROL_cfg_t * const    pSigCfg;
 143:.\source\rte/sc_control.h **** 
 144:.\source\rte/sc_control.h **** };                                                                                                 
 145:.\source\rte/sc_control.h **** typedef struct SC_CONTROL_s SC_CONTROL_t;
 146:.\source\rte/sc_control.h **** 
 147:.\source\rte/sc_control.h **** /**************************************************************************************************
 148:.\source\rte/sc_control.h **** /* Signal initialisation   																							*/
 149:.\source\rte/sc_control.h **** /**************************************************************************************************
 150:.\source\rte/sc_control.h **** 
 151:.\source\rte/sc_control.h **** /**
 152:.\source\rte/sc_control.h ****  * Initializes a signal instance with a passed init value.
 153:.\source\rte/sc_control.h ****  * Depending on the configured conversion or scaling function the raw_value will be calculated.
 154:.\source\rte/sc_control.h ****  * Signal status will change from RTE_SIGNALSTATUS_STARTUP to RTE_SIGNALSTATUS_INITIALIZED.
 155:.\source\rte/sc_control.h ****  *
 156:.\source\rte/sc_control.h ****  * @param  SC_CONTROL_t * const signal: Pointer to the signal object which will be initialised
 157:.\source\rte/sc_control.h ****  * @return RC_t: standard return code, currently only RC_SUCCESS
 158:.\source\rte/sc_control.h ****  *
 159:.\source\rte/sc_control.h ****  **/
 160:.\source\rte/sc_control.h **** inline RC_t RTE_SC_CONTROL_init( SC_CONTROL_t * const signal )
 161:.\source\rte/sc_control.h **** {                                                                                                  
 162:.\source\rte/sc_control.h **** 
 163:.\source\rte/sc_control.h ****    RC_t ret = RC_SUCCESS;
 164:.\source\rte/sc_control.h **** 
 165:.\source\rte/sc_control.h ****    //Set value and raw value
 166:.\source\rte/sc_control.h ****    signal->value  = SC_CONTROL_INIT_DATA;
 167:.\source\rte/sc_control.h ****    signal->age    = 0;
 168:.\source\rte/sc_control.h ****    signal->status = RTE_SIGNALSTATUS_INITIALIZED;
 169:.\source\rte/sc_control.h **** 
 170:.\source\rte/sc_control.h ****    return ret;
 171:.\source\rte/sc_control.h **** }
 172:.\source\rte/sc_control.h **** 
 173:.\source\rte/sc_control.h **** /**************************************************************************************************
 174:.\source\rte/sc_control.h **** /* Status and timeout control																						*/
 175:.\source\rte/sc_control.h **** /**************************************************************************************************
 176:.\source\rte/sc_control.h **** 
 177:.\source\rte/sc_control.h **** /**
 178:.\source\rte/sc_control.h ****  *  Returns the current signal status of the passed signal instance.
 179:.\source\rte/sc_control.h ****  *
 180:.\source\rte/sc_control.h ****  * @param  SC_CONTROL_t * const signal: Pointer to the signal object
 181:.\source\rte/sc_control.h ****  * @return  sig_status_t: The current signal status
 182:.\source\rte/sc_control.h ****  *
 183:.\source\rte/sc_control.h ****  **/
 184:.\source\rte/sc_control.h **** inline RTE_signalStatus_t RTE_SC_CONTROL_getStatus( const SC_CONTROL_t * const signal )
 185:.\source\rte/sc_control.h **** {
 186:.\source\rte/sc_control.h ****    return signal->status;
 187:.\source\rte/sc_control.h **** }
 188:.\source\rte/sc_control.h **** 
 189:.\source\rte/sc_control.h **** 
 190:.\source\rte/sc_control.h **** /**
 191:.\source\rte/sc_control.h ****  *  Sets a new signal status of the passed signal instance by passing the new status.
 192:.\source\rte/sc_control.h ****  *
ARM GAS  C:\Users\Admin\AppData\Local\Temp\cc7OBmIc.s 			page 6


 193:.\source\rte/sc_control.h ****  * @param  SC_CONTROL_t * const signal: Pointer to the signal object
 194:.\source\rte/sc_control.h ****  * @param  const sig_status_t status: New signal status
 195:.\source\rte/sc_control.h ****  * @return RC_t: standard return code, currently only RC_SUCCESS
 196:.\source\rte/sc_control.h ****  *
 197:.\source\rte/sc_control.h ****  */
 198:.\source\rte/sc_control.h **** inline RC_t RTE_SC_CONTROL_setStatus( SC_CONTROL_t * const signal, const RTE_signalStatus_t status 
 199:.\source\rte/sc_control.h **** {
 200:.\source\rte/sc_control.h ****    signal->status = status;
 201:.\source\rte/sc_control.h ****    size_t taskNum=0;
 202:.\source\rte/sc_control.h ****    
 203:.\source\rte/sc_control.h ****    //Fire error events in case of invalid state
 204:.\source\rte/sc_control.h ****    if (signal->status == RTE_SIGNALSTATUS_INVALID)
 205:.\source\rte/sc_control.h ****    {
 206:.\source\rte/sc_control.h **** 	    //Pointer to the Taskarray, containing the tasks receiving the onUpdate events
 207:.\source\rte/sc_control.h **** 		TaskTypeArray* pTaskArray = signal->pSigCfg->onErrorTasks;
 208:.\source\rte/sc_control.h **** 
 209:.\source\rte/sc_control.h **** 		if (0 != signal->pSigCfg->evOnError && NULL != pTaskArray){
 210:.\source\rte/sc_control.h **** 			for( taskNum=0 ; taskNum < signal->pSigCfg->onErrorTaskCount ;taskNum++){
 211:.\source\rte/sc_control.h **** 				TaskType task = (*pTaskArray)[taskNum];
 212:.\source\rte/sc_control.h **** 				SetEvent( task, signal->pSigCfg->evOnError);
 213:.\source\rte/sc_control.h **** 			}
 214:.\source\rte/sc_control.h **** 		}
 215:.\source\rte/sc_control.h ****    }
 216:.\source\rte/sc_control.h ****    
 217:.\source\rte/sc_control.h ****    return RC_SUCCESS;
 218:.\source\rte/sc_control.h **** }
 219:.\source\rte/sc_control.h **** 
 220:.\source\rte/sc_control.h **** 
 221:.\source\rte/sc_control.h **** /**
 222:.\source\rte/sc_control.h ****  * Returns the count of refreshing trials (refresh, set or set_raw) that failed.
 223:.\source\rte/sc_control.h ****  * Prerquisite: The signal is refreshed cyclically
 224:.\source\rte/sc_control.h ****  *
 225:.\source\rte/sc_control.h ****  * @param  SC_CONTROL_t * const signal: Pointer to the signal object
 226:.\source\rte/sc_control.h ****  * @return uint32_t: Number of cycles since the signal has been updated for the last time
 227:.\source\rte/sc_control.h ****  */
 228:.\source\rte/sc_control.h **** inline uint32_t RTE_SC_CONTROL_getAge( const SC_CONTROL_t * const signal )
 229:.\source\rte/sc_control.h **** {
 230:.\source\rte/sc_control.h ****    return signal->age;
 231:.\source\rte/sc_control.h **** }
 232:.\source\rte/sc_control.h **** 
 233:.\source\rte/sc_control.h **** /**
 234:.\source\rte/sc_control.h ****  * Should be called by application or driver if no new value can be provided.
 235:.\source\rte/sc_control.h ****  * @param  SC_CONTROL_t * const signal: Pointer to the signal object
 236:.\source\rte/sc_control.h ****  * @param uint32_t increment: incrementvalue, typically in [ms]
 237:.\source\rte/sc_control.h ****  * @return void
 238:.\source\rte/sc_control.h ****  */
 239:.\source\rte/sc_control.h **** inline void RTE_SC_CONTROL_incAge(  SC_CONTROL_t * const signal , uint32_t increment)
 240:.\source\rte/sc_control.h **** {
 241:.\source\rte/sc_control.h **** 	   //Hack....
 242:.\source\rte/sc_control.h **** 	   if ( 0xFFFF0000 > (signal->age + increment) )
 243:.\source\rte/sc_control.h **** 	   {
 244:.\source\rte/sc_control.h **** 	      signal->age += increment;
 245:.\source\rte/sc_control.h **** 	   }
 246:.\source\rte/sc_control.h **** }
 247:.\source\rte/sc_control.h **** 
 248:.\source\rte/sc_control.h **** 
 249:.\source\rte/sc_control.h **** /**************************************************************************************************
ARM GAS  C:\Users\Admin\AppData\Local\Temp\cc7OBmIc.s 			page 7


 250:.\source\rte/sc_control.h **** /* Application Data read/write Interface																			*/
 251:.\source\rte/sc_control.h **** /**************************************************************************************************
 252:.\source\rte/sc_control.h **** 
 253:.\source\rte/sc_control.h **** /**
 254:.\source\rte/sc_control.h ****  * Returns the current application value as pointer to the signal payload.
 255:.\source\rte/sc_control.h ****  * Careful: This is not threadsafe!!!
 256:.\source\rte/sc_control.h ****  *
 257:.\source\rte/sc_control.h ****  * @param  SC_CONTROL_t * const signal: Pointer to the signal object
 258:.\source\rte/sc_control.h ****  * @return sc_control_data_t*: pointer to the current value of the application data buffer
 259:.\source\rte/sc_control.h ****  *
 260:.\source\rte/sc_control.h ****  **/
 261:.\source\rte/sc_control.h **** inline SC_CONTROL_data_t* RTE_SC_CONTROL_getPtr( SC_CONTROL_t * const signal )
 262:.\source\rte/sc_control.h **** {               
 263:.\source\rte/sc_control.h ****    //Todo: Critical region cannot be protected using return values																						
 264:.\source\rte/sc_control.h ****    return &(signal->value);                                                                        
 265:.\source\rte/sc_control.h **** }
 266:.\source\rte/sc_control.h **** 
 267:.\source\rte/sc_control.h **** /**
 268:.\source\rte/sc_control.h ****  * Returns the current application value of the passed signal instance.
 269:.\source\rte/sc_control.h ****  *
 270:.\source\rte/sc_control.h ****  * @param  SC_CONTROL_t * const signal: Pointer to the signal object
 271:.\source\rte/sc_control.h ****  * @return sc_control_data_t: current value of the application data buffer
 272:.\source\rte/sc_control.h ****  *
 273:.\source\rte/sc_control.h ****  **/
 274:.\source\rte/sc_control.h **** inline SC_CONTROL_data_t RTE_SC_CONTROL_get( const SC_CONTROL_t * const signal )
 275:.\source\rte/sc_control.h **** {               
 276:.\source\rte/sc_control.h ****    //Todo: Critical region cannot be protected using return values																						
 277:.\source\rte/sc_control.h ****    return signal->value;                                                                           
  47              		.loc 2 277 0
  48 0006 1A4B     		ldr	r3, .L8
  49 0008 04AC     		add	r4, sp, #16
  50 000a 0FCB     		ldmia	r3, {r0, r1, r2, r3}
  51              	.LVL2:
  52 000c 84E80F00 		stmia	r4, {r0, r1, r2, r3}
  53              	.LVL3:
  54              	.LBE10:
  55              	.LBE9:
  48:source\asw/swc_display.c ****     SC_CONTROL_data_t   control_data    = SC_CONTROL_INIT_DATA;
  49:source\asw/swc_display.c ****     
  50:source\asw/swc_display.c ****     control_data    =   RTE_SC_CONTROL_get(&SO_CONTROL_signal);
  51:source\asw/swc_display.c ****     
  52:source\asw/swc_display.c ****     tft_data.hour     =   control_data.hour;
  56              		.loc 1 52 0
  57 0010 85E80300 		stmia	r5, {r0, r1}
  53:source\asw/swc_display.c ****     tft_data.minute   =   control_data.minute;
  58              		.loc 1 53 0
  59 0014 06AB     		add	r3, sp, #24
  60 0016 93E80300 		ldmia	r3, {r0, r1}
  61 001a 0CAB     		add	r3, sp, #48
  62 001c 03E90300 		stmdb	r3, {r0, r1}
  63              	.LVL4:
  64 0020 95E80F00 		ldmia	r5, {r0, r1, r2, r3}
  65 0024 8DE80F00 		stmia	sp, {r0, r1, r2, r3}
  66              	.LVL5:
  67              	.LBB11:
  68              	.LBB12:
  69              		.file 3 ".\\source\\rte/sc_display.h"
ARM GAS  C:\Users\Admin\AppData\Local\Temp\cc7OBmIc.s 			page 8


   1:.\source\rte/sc_display.h **** 
   2:.\source\rte/sc_display.h **** 
   3:.\source\rte/sc_display.h **** /**
   4:.\source\rte/sc_display.h ****  *  file    SC_DISPLAY_signal.h
   5:.\source\rte/sc_display.h ****  *
   6:.\source\rte/sc_display.h ****  *  brief   signal base class for signal sc_display
   7:.\source\rte/sc_display.h ****  *
   8:.\source\rte/sc_display.h ****  *  author  Autogenerated, Peter Fromm       <peter.fromm@h-da.de>
   9:.\source\rte/sc_display.h ****  *
  10:.\source\rte/sc_display.h ****  * description: Signal class for display
  11:.\source\rte/sc_display.h ****  * name: sc_Display
  12:.\source\rte/sc_display.h ****  * shortname: Display
  13:.\source\rte/sc_display.h ****  *
  14:.\source\rte/sc_display.h ****  */
  15:.\source\rte/sc_display.h **** 
  16:.\source\rte/sc_display.h **** 
  17:.\source\rte/sc_display.h **** 
  18:.\source\rte/sc_display.h **** #ifndef SC_DISPLAY_SIGNAL_H_INCLUDED
  19:.\source\rte/sc_display.h **** #define SC_DISPLAY_SIGNAL_H_INCLUDED
  20:.\source\rte/sc_display.h **** 
  21:.\source\rte/sc_display.h **** /*================================================[ public includes  ]=============================
  22:.\source\rte/sc_display.h **** #include "global.h"
  23:.\source\rte/sc_display.h **** #include "project.h"
  24:.\source\rte/sc_display.h **** #include "rte.h"
  25:.\source\rte/sc_display.h **** #include "rte_types.h"
  26:.\source\rte/sc_display.h **** 
  27:.\source\rte/sc_display.h **** #include "sc_display_type.h"
  28:.\source\rte/sc_display.h **** 
  29:.\source\rte/sc_display.h **** 
  30:.\source\rte/sc_display.h **** /**************************************************************************************************
  31:.\source\rte/sc_display.h **** /* The driver API block																						*/
  32:.\source\rte/sc_display.h **** /**************************************************************************************************
  33:.\source\rte/sc_display.h ****                                                                                                    
  34:.\source\rte/sc_display.h **** /**
  35:.\source\rte/sc_display.h ****  *  Definition of function types for driver interfaces.
  36:.\source\rte/sc_display.h ****  *  I-Port
  37:.\source\rte/sc_display.h ****  */
  38:.\source\rte/sc_display.h **** typedef RC_t (*SC_DISPLAY_driverIn_t)(SC_DISPLAY_data_t * const);
  39:.\source\rte/sc_display.h **** 
  40:.\source\rte/sc_display.h **** /**
  41:.\source\rte/sc_display.h ****  *  Definition of function types for driver interfaces.
  42:.\source\rte/sc_display.h ****  *  O-Port
  43:.\source\rte/sc_display.h ****  */
  44:.\source\rte/sc_display.h **** typedef RC_t (*SC_DISPLAY_driverOut_t)( const SC_DISPLAY_data_t * const);
  45:.\source\rte/sc_display.h **** 
  46:.\source\rte/sc_display.h **** 
  47:.\source\rte/sc_display.h **** /**************************************************************************************************
  48:.\source\rte/sc_display.h **** /* The signal configuration API block																				*/
  49:.\source\rte/sc_display.h **** /**************************************************************************************************
  50:.\source\rte/sc_display.h **** 
  51:.\source\rte/sc_display.h **** /**
  52:.\source\rte/sc_display.h ****  * Instances of the struct SC_DISPLAY_cfg_t represent the signal object configuration.
  53:.\source\rte/sc_display.h ****  */
  54:.\source\rte/sc_display.h **** struct SC_DISPLAY_cfg_s
  55:.\source\rte/sc_display.h **** {
  56:.\source\rte/sc_display.h ****     /**
  57:.\source\rte/sc_display.h ****      * Function pointer to the input driver
ARM GAS  C:\Users\Admin\AppData\Local\Temp\cc7OBmIc.s 			page 9


  58:.\source\rte/sc_display.h ****      */
  59:.\source\rte/sc_display.h ****     SC_DISPLAY_driverIn_t const inDriver;
  60:.\source\rte/sc_display.h **** 
  61:.\source\rte/sc_display.h ****     /**
  62:.\source\rte/sc_display.h ****      * Function pointer to the output driver table
  63:.\source\rte/sc_display.h ****      */
  64:.\source\rte/sc_display.h ****    SC_DISPLAY_driverOut_t const outDriver;
  65:.\source\rte/sc_display.h ****    
  66:.\source\rte/sc_display.h ****     /**
  67:.\source\rte/sc_display.h ****      * Event onUpdate
  68:.\source\rte/sc_display.h ****      */
  69:.\source\rte/sc_display.h ****     EventMaskType const evOnUpdate;
  70:.\source\rte/sc_display.h ****     
  71:.\source\rte/sc_display.h ****     
  72:.\source\rte/sc_display.h ****     /**
  73:.\source\rte/sc_display.h ****      * Event onError
  74:.\source\rte/sc_display.h ****      */
  75:.\source\rte/sc_display.h ****     EventMaskType const evOnError;
  76:.\source\rte/sc_display.h ****     
  77:.\source\rte/sc_display.h ****     /**
  78:.\source\rte/sc_display.h ****      * Task Count onUpdate
  79:.\source\rte/sc_display.h ****      */
  80:.\source\rte/sc_display.h ****     size_t const onUpdateTaskCount;
  81:.\source\rte/sc_display.h **** 
  82:.\source\rte/sc_display.h ****     /**
  83:.\source\rte/sc_display.h ****      * Task List onUpdate
  84:.\source\rte/sc_display.h ****      */
  85:.\source\rte/sc_display.h ****     TaskTypeArray* const onUpdateTasks;
  86:.\source\rte/sc_display.h ****     
  87:.\source\rte/sc_display.h ****     /**
  88:.\source\rte/sc_display.h ****      * Task Count onError
  89:.\source\rte/sc_display.h ****      */
  90:.\source\rte/sc_display.h ****     size_t const onErrorTaskCount;
  91:.\source\rte/sc_display.h **** 
  92:.\source\rte/sc_display.h ****     /**
  93:.\source\rte/sc_display.h ****      * Task List onError
  94:.\source\rte/sc_display.h ****      */
  95:.\source\rte/sc_display.h ****     TaskTypeArray* const onErrorTasks;
  96:.\source\rte/sc_display.h **** 	
  97:.\source\rte/sc_display.h **** 	
  98:.\source\rte/sc_display.h **** 	/**
  99:.\source\rte/sc_display.h **** 	 * Ressourse is active? We need an additional boolean as a ressource value 0 is valid.
 100:.\source\rte/sc_display.h **** 	 */
 101:.\source\rte/sc_display.h **** 	 boolean_t const resourceActive;
 102:.\source\rte/sc_display.h **** 	 
 103:.\source\rte/sc_display.h **** 	/**
 104:.\source\rte/sc_display.h **** 	 * Ressourse 
 105:.\source\rte/sc_display.h **** 	 */
 106:.\source\rte/sc_display.h **** 	 ResourceType const resource;
 107:.\source\rte/sc_display.h **** 
 108:.\source\rte/sc_display.h **** };                                                                                                 
 109:.\source\rte/sc_display.h **** typedef const struct SC_DISPLAY_cfg_s SC_DISPLAY_cfg_t;
 110:.\source\rte/sc_display.h ****                               
 111:.\source\rte/sc_display.h **** /**************************************************************************************************
 112:.\source\rte/sc_display.h **** /* The data interface block																							*/
 113:.\source\rte/sc_display.h **** /**************************************************************************************************
 114:.\source\rte/sc_display.h **** 
ARM GAS  C:\Users\Admin\AppData\Local\Temp\cc7OBmIc.s 			page 10


 115:.\source\rte/sc_display.h ****                                                                                                    
 116:.\source\rte/sc_display.h **** 							  
 117:.\source\rte/sc_display.h **** /**
 118:.\source\rte/sc_display.h ****  * Instances of the struct SC_DISPLAY_t represent the signal objects.
 119:.\source\rte/sc_display.h ****  * A signal object contains the current application value 'value' as well as relevant meta data.
 120:.\source\rte/sc_display.h ****  */
 121:.\source\rte/sc_display.h **** struct SC_DISPLAY_s
 122:.\source\rte/sc_display.h **** {                                                                                                  
 123:.\source\rte/sc_display.h **** 
 124:.\source\rte/sc_display.h **** 	/**
 125:.\source\rte/sc_display.h **** 	 * Data buffer for the application value
 126:.\source\rte/sc_display.h **** 	 */
 127:.\source\rte/sc_display.h ****     SC_DISPLAY_data_t value;
 128:.\source\rte/sc_display.h **** 
 129:.\source\rte/sc_display.h ****     /**
 130:.\source\rte/sc_display.h ****      * Current signal status
 131:.\source\rte/sc_display.h ****      */
 132:.\source\rte/sc_display.h ****     RTE_signalStatus_t status;
 133:.\source\rte/sc_display.h **** 
 134:.\source\rte/sc_display.h ****     /**
 135:.\source\rte/sc_display.h ****      * Current age of the signal (in calling cycles)
 136:.\source\rte/sc_display.h ****      */
 137:.\source\rte/sc_display.h ****     uint32_t age;
 138:.\source\rte/sc_display.h **** 
 139:.\source\rte/sc_display.h ****     /**
 140:.\source\rte/sc_display.h ****      * Pointer to the signal configuration
 141:.\source\rte/sc_display.h ****      */
 142:.\source\rte/sc_display.h **** 	const SC_DISPLAY_cfg_t * const    pSigCfg;
 143:.\source\rte/sc_display.h **** 
 144:.\source\rte/sc_display.h **** };                                                                                                 
 145:.\source\rte/sc_display.h **** typedef struct SC_DISPLAY_s SC_DISPLAY_t;
 146:.\source\rte/sc_display.h **** 
 147:.\source\rte/sc_display.h **** /**************************************************************************************************
 148:.\source\rte/sc_display.h **** /* Signal initialisation   																							*/
 149:.\source\rte/sc_display.h **** /**************************************************************************************************
 150:.\source\rte/sc_display.h **** 
 151:.\source\rte/sc_display.h **** /**
 152:.\source\rte/sc_display.h ****  * Initializes a signal instance with a passed init value.
 153:.\source\rte/sc_display.h ****  * Depending on the configured conversion or scaling function the raw_value will be calculated.
 154:.\source\rte/sc_display.h ****  * Signal status will change from RTE_SIGNALSTATUS_STARTUP to RTE_SIGNALSTATUS_INITIALIZED.
 155:.\source\rte/sc_display.h ****  *
 156:.\source\rte/sc_display.h ****  * @param  SC_DISPLAY_t * const signal: Pointer to the signal object which will be initialised
 157:.\source\rte/sc_display.h ****  * @return RC_t: standard return code, currently only RC_SUCCESS
 158:.\source\rte/sc_display.h ****  *
 159:.\source\rte/sc_display.h ****  **/
 160:.\source\rte/sc_display.h **** inline RC_t RTE_SC_DISPLAY_init( SC_DISPLAY_t * const signal )
 161:.\source\rte/sc_display.h **** {                                                                                                  
 162:.\source\rte/sc_display.h **** 
 163:.\source\rte/sc_display.h ****    RC_t ret = RC_SUCCESS;
 164:.\source\rte/sc_display.h **** 
 165:.\source\rte/sc_display.h ****    //Set value and raw value
 166:.\source\rte/sc_display.h ****    signal->value  = SC_DISPLAY_INIT_DATA;
 167:.\source\rte/sc_display.h ****    signal->age    = 0;
 168:.\source\rte/sc_display.h ****    signal->status = RTE_SIGNALSTATUS_INITIALIZED;
 169:.\source\rte/sc_display.h **** 
 170:.\source\rte/sc_display.h ****    return ret;
 171:.\source\rte/sc_display.h **** }
ARM GAS  C:\Users\Admin\AppData\Local\Temp\cc7OBmIc.s 			page 11


 172:.\source\rte/sc_display.h **** 
 173:.\source\rte/sc_display.h **** /**************************************************************************************************
 174:.\source\rte/sc_display.h **** /* Status and timeout control																						*/
 175:.\source\rte/sc_display.h **** /**************************************************************************************************
 176:.\source\rte/sc_display.h **** 
 177:.\source\rte/sc_display.h **** /**
 178:.\source\rte/sc_display.h ****  *  Returns the current signal status of the passed signal instance.
 179:.\source\rte/sc_display.h ****  *
 180:.\source\rte/sc_display.h ****  * @param  SC_DISPLAY_t * const signal: Pointer to the signal object
 181:.\source\rte/sc_display.h ****  * @return  sig_status_t: The current signal status
 182:.\source\rte/sc_display.h ****  *
 183:.\source\rte/sc_display.h ****  **/
 184:.\source\rte/sc_display.h **** inline RTE_signalStatus_t RTE_SC_DISPLAY_getStatus( const SC_DISPLAY_t * const signal )
 185:.\source\rte/sc_display.h **** {
 186:.\source\rte/sc_display.h ****    return signal->status;
 187:.\source\rte/sc_display.h **** }
 188:.\source\rte/sc_display.h **** 
 189:.\source\rte/sc_display.h **** 
 190:.\source\rte/sc_display.h **** /**
 191:.\source\rte/sc_display.h ****  *  Sets a new signal status of the passed signal instance by passing the new status.
 192:.\source\rte/sc_display.h ****  *
 193:.\source\rte/sc_display.h ****  * @param  SC_DISPLAY_t * const signal: Pointer to the signal object
 194:.\source\rte/sc_display.h ****  * @param  const sig_status_t status: New signal status
 195:.\source\rte/sc_display.h ****  * @return RC_t: standard return code, currently only RC_SUCCESS
 196:.\source\rte/sc_display.h ****  *
 197:.\source\rte/sc_display.h ****  */
 198:.\source\rte/sc_display.h **** inline RC_t RTE_SC_DISPLAY_setStatus( SC_DISPLAY_t * const signal, const RTE_signalStatus_t status 
 199:.\source\rte/sc_display.h **** {
 200:.\source\rte/sc_display.h ****    signal->status = status;
 201:.\source\rte/sc_display.h ****    size_t taskNum=0;
 202:.\source\rte/sc_display.h ****    
 203:.\source\rte/sc_display.h ****    //Fire error events in case of invalid state
 204:.\source\rte/sc_display.h ****    if (signal->status == RTE_SIGNALSTATUS_INVALID)
 205:.\source\rte/sc_display.h ****    {
 206:.\source\rte/sc_display.h **** 	    //Pointer to the Taskarray, containing the tasks receiving the onUpdate events
 207:.\source\rte/sc_display.h **** 		TaskTypeArray* pTaskArray = signal->pSigCfg->onErrorTasks;
 208:.\source\rte/sc_display.h **** 
 209:.\source\rte/sc_display.h **** 		if (0 != signal->pSigCfg->evOnError && NULL != pTaskArray){
 210:.\source\rte/sc_display.h **** 			for( taskNum=0 ; taskNum < signal->pSigCfg->onErrorTaskCount ;taskNum++){
 211:.\source\rte/sc_display.h **** 				TaskType task = (*pTaskArray)[taskNum];
 212:.\source\rte/sc_display.h **** 				SetEvent( task, signal->pSigCfg->evOnError);
 213:.\source\rte/sc_display.h **** 			}
 214:.\source\rte/sc_display.h **** 		}
 215:.\source\rte/sc_display.h ****    }
 216:.\source\rte/sc_display.h ****    
 217:.\source\rte/sc_display.h ****    return RC_SUCCESS;
 218:.\source\rte/sc_display.h **** }
 219:.\source\rte/sc_display.h **** 
 220:.\source\rte/sc_display.h **** 
 221:.\source\rte/sc_display.h **** /**
 222:.\source\rte/sc_display.h ****  * Returns the count of refreshing trials (refresh, set or set_raw) that failed.
 223:.\source\rte/sc_display.h ****  * Prerquisite: The signal is refreshed cyclically
 224:.\source\rte/sc_display.h ****  *
 225:.\source\rte/sc_display.h ****  * @param  SC_DISPLAY_t * const signal: Pointer to the signal object
 226:.\source\rte/sc_display.h ****  * @return uint32_t: Number of cycles since the signal has been updated for the last time
 227:.\source\rte/sc_display.h ****  */
 228:.\source\rte/sc_display.h **** inline uint32_t RTE_SC_DISPLAY_getAge( const SC_DISPLAY_t * const signal )
ARM GAS  C:\Users\Admin\AppData\Local\Temp\cc7OBmIc.s 			page 12


 229:.\source\rte/sc_display.h **** {
 230:.\source\rte/sc_display.h ****    return signal->age;
 231:.\source\rte/sc_display.h **** }
 232:.\source\rte/sc_display.h **** 
 233:.\source\rte/sc_display.h **** /**
 234:.\source\rte/sc_display.h ****  * Should be called by application or driver if no new value can be provided.
 235:.\source\rte/sc_display.h ****  * @param  SC_DISPLAY_t * const signal: Pointer to the signal object
 236:.\source\rte/sc_display.h ****  * @param uint32_t increment: incrementvalue, typically in [ms]
 237:.\source\rte/sc_display.h ****  * @return void
 238:.\source\rte/sc_display.h ****  */
 239:.\source\rte/sc_display.h **** inline void RTE_SC_DISPLAY_incAge(  SC_DISPLAY_t * const signal , uint32_t increment)
 240:.\source\rte/sc_display.h **** {
 241:.\source\rte/sc_display.h **** 	   //Hack....
 242:.\source\rte/sc_display.h **** 	   if ( 0xFFFF0000 > (signal->age + increment) )
 243:.\source\rte/sc_display.h **** 	   {
 244:.\source\rte/sc_display.h **** 	      signal->age += increment;
 245:.\source\rte/sc_display.h **** 	   }
 246:.\source\rte/sc_display.h **** }
 247:.\source\rte/sc_display.h **** 
 248:.\source\rte/sc_display.h **** 
 249:.\source\rte/sc_display.h **** /**************************************************************************************************
 250:.\source\rte/sc_display.h **** /* Application Data read/write Interface																			*/
 251:.\source\rte/sc_display.h **** /**************************************************************************************************
 252:.\source\rte/sc_display.h **** 
 253:.\source\rte/sc_display.h **** /**
 254:.\source\rte/sc_display.h ****  * Returns the current application value as pointer to the signal payload.
 255:.\source\rte/sc_display.h ****  * Careful: This is not threadsafe!!!
 256:.\source\rte/sc_display.h ****  *
 257:.\source\rte/sc_display.h ****  * @param  SC_DISPLAY_t * const signal: Pointer to the signal object
 258:.\source\rte/sc_display.h ****  * @return sc_display_data_t*: pointer to the current value of the application data buffer
 259:.\source\rte/sc_display.h ****  *
 260:.\source\rte/sc_display.h ****  **/
 261:.\source\rte/sc_display.h **** inline SC_DISPLAY_data_t* RTE_SC_DISPLAY_getPtr( SC_DISPLAY_t * const signal )
 262:.\source\rte/sc_display.h **** {               
 263:.\source\rte/sc_display.h ****    //Todo: Critical region cannot be protected using return values																						
 264:.\source\rte/sc_display.h ****    return &(signal->value);                                                                        
 265:.\source\rte/sc_display.h **** }
 266:.\source\rte/sc_display.h **** 
 267:.\source\rte/sc_display.h **** /**
 268:.\source\rte/sc_display.h ****  * Returns the current application value of the passed signal instance.
 269:.\source\rte/sc_display.h ****  *
 270:.\source\rte/sc_display.h ****  * @param  SC_DISPLAY_t * const signal: Pointer to the signal object
 271:.\source\rte/sc_display.h ****  * @return sc_display_data_t: current value of the application data buffer
 272:.\source\rte/sc_display.h ****  *
 273:.\source\rte/sc_display.h ****  **/
 274:.\source\rte/sc_display.h **** inline SC_DISPLAY_data_t RTE_SC_DISPLAY_get( const SC_DISPLAY_t * const signal )
 275:.\source\rte/sc_display.h **** {               
 276:.\source\rte/sc_display.h ****    //Todo: Critical region cannot be protected using return values																						
 277:.\source\rte/sc_display.h ****    return signal->value;                                                                           
 278:.\source\rte/sc_display.h **** }                                                                                                  
 279:.\source\rte/sc_display.h ****                                                                                                    
 280:.\source\rte/sc_display.h **** /**
 281:.\source\rte/sc_display.h ****  * Returns the current application value of the passed signal instance threadsafe.
 282:.\source\rte/sc_display.h ****  *
 283:.\source\rte/sc_display.h ****  * @param  SC_DISPLAY_t * const signal: Pointer to the signal object
 284:.\source\rte/sc_display.h ****  * @param  SC_DISPLAY_data_t* data: Pointer to the return data Pointer to the signal object
 285:.\source\rte/sc_display.h ****  * @return RC_SUCCESS
ARM GAS  C:\Users\Admin\AppData\Local\Temp\cc7OBmIc.s 			page 13


 286:.\source\rte/sc_display.h ****  *
 287:.\source\rte/sc_display.h ****  **/
 288:.\source\rte/sc_display.h **** inline RC_t RTE_SC_DISPLAY_getThreadSafe( const SC_DISPLAY_t * const signal, SC_DISPLAY_data_t * co
 289:.\source\rte/sc_display.h **** {    
 290:.\source\rte/sc_display.h ****    if (TRUE == signal->pSigCfg->resourceActive) GetResource(signal->pSigCfg->resource);
 291:.\source\rte/sc_display.h ****    *data = signal->value;
 292:.\source\rte/sc_display.h ****    if (TRUE == signal->pSigCfg->resourceActive) ReleaseResource(signal->pSigCfg->resource);        
 293:.\source\rte/sc_display.h **** 
 294:.\source\rte/sc_display.h ****    return RC_SUCCESS;                                                                   
 295:.\source\rte/sc_display.h ****    
 296:.\source\rte/sc_display.h **** }                                                                                                  
 297:.\source\rte/sc_display.h ****                                                                                                    
 298:.\source\rte/sc_display.h **** /**
 299:.\source\rte/sc_display.h ****  * Sets a new application value to the passed signal instance by passing the new value.
 300:.\source\rte/sc_display.h ****  * The corresponding driver raw value will be calculated immediately by using the default conversio
 301:.\source\rte/sc_display.h ****  * signal specific scaling function.
 302:.\source\rte/sc_display.h ****  * The signal age will be set to 0 and the new status will be 'RTE_SIGNALSTATUS_VALID'.
 303:.\source\rte/sc_display.h ****  *
 304:.\source\rte/sc_display.h ****  * @param  SC_DISPLAY_t * const signal: Pointer to the signal object
 305:.\source\rte/sc_display.h ****  * @param  sc_display_data_t const value: value for the application data buffer
 306:.\source\rte/sc_display.h ****  * @return RC_t: standard return code, currently only RC_SUCCESS
 307:.\source\rte/sc_display.h ****  *
 308:.\source\rte/sc_display.h ****  **/
 309:.\source\rte/sc_display.h **** inline RC_t RTE_SC_DISPLAY_set(SC_DISPLAY_t * const signal, const SC_DISPLAY_data_t value  )
 310:.\source\rte/sc_display.h **** {
 311:.\source\rte/sc_display.h **** 
 312:.\source\rte/sc_display.h ****    RC_t ret = RC_SUCCESS;
 313:.\source\rte/sc_display.h ****    size_t taskNum=0;
 314:.\source\rte/sc_display.h **** 
 315:.\source\rte/sc_display.h **** 
 316:.\source\rte/sc_display.h ****    if (TRUE == signal->pSigCfg->resourceActive) GetResource(signal->pSigCfg->resource);
  70              		.loc 3 316 0
  71 0028 124D     		ldr	r5, .L8+4
  72 002a AE69     		ldr	r6, [r5, #24]
 317:.\source\rte/sc_display.h ****    signal->value  = value;
  73              		.loc 3 317 0
  74 002c 85E80F00 		stmia	r5, {r0, r1, r2, r3}
 318:.\source\rte/sc_display.h ****    signal->age    = 0;
  75              		.loc 3 318 0
  76 0030 0023     		movs	r3, #0
  77 0032 6B61     		str	r3, [r5, #20]
 319:.\source\rte/sc_display.h ****    signal->status = RTE_SIGNALSTATUS_VALID;
  78              		.loc 3 319 0
  79 0034 0223     		movs	r3, #2
  80 0036 2B74     		strb	r3, [r5, #16]
 320:.\source\rte/sc_display.h ****    if (TRUE == signal->pSigCfg->resourceActive) ReleaseResource(signal->pSigCfg->resource);
 321:.\source\rte/sc_display.h **** 
 322:.\source\rte/sc_display.h ****    //Pointer to the Taskarray, containing the tasks receiving the onUpdate events
 323:.\source\rte/sc_display.h ****    TaskTypeArray* pTaskArray = signal->pSigCfg->onUpdateTasks;
  81              		.loc 3 323 0
  82 0038 7569     		ldr	r5, [r6, #20]
  83              	.LVL6:
 324:.\source\rte/sc_display.h **** 
 325:.\source\rte/sc_display.h ****    if (0 != signal->pSigCfg->evOnUpdate && NULL != pTaskArray){
  84              		.loc 3 325 0
  85 003a B368     		ldr	r3, [r6, #8]
  86 003c 73B1     		cbz	r3, .L2
ARM GAS  C:\Users\Admin\AppData\Local\Temp\cc7OBmIc.s 			page 14


  87 003e 3DB9     		cbnz	r5, .L6
  88 0040 0CE0     		b	.L2
  89              	.LVL7:
  90              	.L4:
  91              	.LBB13:
 326:.\source\rte/sc_display.h ****       for( taskNum=0 ; taskNum < signal->pSigCfg->onUpdateTaskCount ;taskNum++){
 327:.\source\rte/sc_display.h **** 		  
 328:.\source\rte/sc_display.h ****           TaskType task = (*pTaskArray)[taskNum];
 329:.\source\rte/sc_display.h **** 	      SetEvent( task, signal->pSigCfg->evOnUpdate);
  92              		.loc 3 329 0
  93 0042 9968     		ldr	r1, [r3, #8]
  94 0044 55F82400 		ldr	r0, [r5, r4, lsl #2]
  95 0048 FFF7FEFF 		bl	EE_oo_SetEvent
  96              	.LVL8:
  97              	.LBE13:
 326:.\source\rte/sc_display.h ****       for( taskNum=0 ; taskNum < signal->pSigCfg->onUpdateTaskCount ;taskNum++){
  98              		.loc 3 326 0
  99 004c 0134     		adds	r4, r4, #1
 100              	.LVL9:
 101 004e 00E0     		b	.L3
 102              	.LVL10:
 103              	.L6:
 325:.\source\rte/sc_display.h ****       for( taskNum=0 ; taskNum < signal->pSigCfg->onUpdateTaskCount ;taskNum++){
 104              		.loc 3 325 0
 105 0050 0024     		movs	r4, #0
 106              	.LVL11:
 107              	.L3:
 326:.\source\rte/sc_display.h ****       for( taskNum=0 ; taskNum < signal->pSigCfg->onUpdateTaskCount ;taskNum++){
 108              		.loc 3 326 0
 109 0052 084B     		ldr	r3, .L8+4
 110 0054 9B69     		ldr	r3, [r3, #24]
 111 0056 1A69     		ldr	r2, [r3, #16]
 112 0058 9442     		cmp	r4, r2
 113 005a F2D3     		bcc	.L4
 114              	.LVL12:
 115              	.L2:
 116              	.LBE12:
 117              	.LBE11:
 118              	.LBB14:
 119              	.LBB15:
 330:.\source\rte/sc_display.h ****       }
 331:.\source\rte/sc_display.h ****    }
 332:.\source\rte/sc_display.h **** 
 333:.\source\rte/sc_display.h ****    return ret;
 334:.\source\rte/sc_display.h **** }                                                                                                  
 335:.\source\rte/sc_display.h ****                                                                                                    
 336:.\source\rte/sc_display.h ****                                                                                                    
 337:.\source\rte/sc_display.h **** /**************************************************************************************************
 338:.\source\rte/sc_display.h **** /* Call functions to the connected drivers																			*/
 339:.\source\rte/sc_display.h **** /**************************************************************************************************
 340:.\source\rte/sc_display.h **** 
 341:.\source\rte/sc_display.h ****                                                                                                    
 342:.\source\rte/sc_display.h **** /**
 343:.\source\rte/sc_display.h ****  *  Calls the connected driver interface to get a new value.
 344:.\source\rte/sc_display.h ****  *
 345:.\source\rte/sc_display.h ****  * @param SC_DISPLAY_t * const signal: Pointer to the signal object
 346:.\source\rte/sc_display.h ****  * @return  RC_t: Return value of the driver call
ARM GAS  C:\Users\Admin\AppData\Local\Temp\cc7OBmIc.s 			page 15


 347:.\source\rte/sc_display.h ****  *
 348:.\source\rte/sc_display.h ****  */
 349:.\source\rte/sc_display.h **** inline RC_t RTE_SC_DISPLAY_pullPort( SC_DISPLAY_t * const signal )
 350:.\source\rte/sc_display.h **** {                                                                                                  
 351:.\source\rte/sc_display.h ****    RC_t ret = RC_SUCCESS;
 352:.\source\rte/sc_display.h **** 
 353:.\source\rte/sc_display.h ****                                                                                                    
 354:.\source\rte/sc_display.h ****    if ( NULL != signal->pSigCfg->inDriver )
 355:.\source\rte/sc_display.h ****    {
 356:.\source\rte/sc_display.h **** 	  SC_DISPLAY_data_t value = signal->value;
 357:.\source\rte/sc_display.h ****       ret = signal->pSigCfg->inDriver(&value);
 358:.\source\rte/sc_display.h ****                                                                                                    
 359:.\source\rte/sc_display.h ****       if ( ret == RC_SUCCESS )                                                                     
 360:.\source\rte/sc_display.h ****       {
 361:.\source\rte/sc_display.h ****     	  //Critical Section
 362:.\source\rte/sc_display.h ****     	  RTE_SC_DISPLAY_set(signal, value);
 363:.\source\rte/sc_display.h ****       }
 364:.\source\rte/sc_display.h ****       else
 365:.\source\rte/sc_display.h ****       {
 366:.\source\rte/sc_display.h **** 		  //Signal is invalid. Error event (if present) will be fired
 367:.\source\rte/sc_display.h **** 		  RTE_SC_DISPLAY_setStatus(signal, RTE_SIGNALSTATUS_INVALID);
 368:.\source\rte/sc_display.h ****       }
 369:.\source\rte/sc_display.h **** 
 370:.\source\rte/sc_display.h ****    }                                                                                               
 371:.\source\rte/sc_display.h ****                                                                                                    
 372:.\source\rte/sc_display.h ****    return ret;                                                                                     
 373:.\source\rte/sc_display.h **** }                                                                                                  
 374:.\source\rte/sc_display.h ****                                                                                                    
 375:.\source\rte/sc_display.h **** /**
 376:.\source\rte/sc_display.h ****  *  Calls the connected driver interfaces to send a value. Value will not be sent if it is INVALID.
 377:.\source\rte/sc_display.h ****  *
 378:.\source\rte/sc_display.h ****  * @param SC_DISPLAY_t * const signal: Pointer to the signal object
 379:.\source\rte/sc_display.h ****  * @return  RC_t: Return value of the driver call
 380:.\source\rte/sc_display.h ****  *
 381:.\source\rte/sc_display.h ****  **/
 382:.\source\rte/sc_display.h **** inline RC_t RTE_SC_DISPLAY_pushPort( const SC_DISPLAY_t * const signal )
 383:.\source\rte/sc_display.h **** {                                                                                                  
 384:.\source\rte/sc_display.h ****    RC_t ret = RC_ERROR;
 385:.\source\rte/sc_display.h **** 
 386:.\source\rte/sc_display.h ****    if (RTE_SIGNALSTATUS_VALID == signal->status)
 120              		.loc 3 386 0
 121 005c 054B     		ldr	r3, .L8+4
 122 005e 1B7C     		ldrb	r3, [r3, #16]	@ zero_extendqisi2
 123 0060 022B     		cmp	r3, #2
 124 0062 03D1     		bne	.L1
 387:.\source\rte/sc_display.h ****    {
 388:.\source\rte/sc_display.h **** 	   ret = signal->pSigCfg->outDriver(&(signal->value));
 125              		.loc 3 388 0
 126 0064 0348     		ldr	r0, .L8+4
 127 0066 8369     		ldr	r3, [r0, #24]
 128 0068 5B68     		ldr	r3, [r3, #4]
 129 006a 9847     		blx	r3
 130              	.LVL13:
 131              	.L1:
 132              	.LBE15:
 133              	.LBE14:
  54:source\asw/swc_display.c ****     
ARM GAS  C:\Users\Admin\AppData\Local\Temp\cc7OBmIc.s 			page 16


  55:source\asw/swc_display.c ****     RTE_SC_DISPLAY_set(&SO_DISPLAYTFT_signal, tft_data);
  56:source\asw/swc_display.c ****     RTE_SC_DISPLAY_pushPort(&SO_DISPLAYTFT_signal);
  57:source\asw/swc_display.c ****     /* USER CODE END DISPLAY_Clock_display_run */
  58:source\asw/swc_display.c **** }
 134              		.loc 1 58 0
 135 006c 0CB0     		add	sp, sp, #48
 136              		.cfi_def_cfa_offset 16
 137              		@ sp needed
 138 006e 70BD     		pop	{r4, r5, r6, pc}
 139              	.L9:
 140              		.align	2
 141              	.L8:
 142 0070 00000000 		.word	SO_CONTROL_signal
 143 0074 00000000 		.word	SO_DISPLAYTFT_signal
 144              		.cfi_endproc
 145              	.LFE144:
 146              		.size	DISPLAY_Clock_display_run, .-DISPLAY_Clock_display_run
 147              		.text
 148              	.Letext0:
 149              		.file 4 "d:\\psoc creator\\4.4\\psoc creator\\import\\gnu\\arm\\5.4.1\\arm-none-eabi\\include\\mac
 150              		.file 5 "d:\\psoc creator\\4.4\\psoc creator\\import\\gnu\\arm\\5.4.1\\arm-none-eabi\\include\\sys
 151              		.file 6 "d:\\psoc creator\\4.4\\psoc creator\\import\\gnu\\arm\\5.4.1\\lib\\gcc\\arm-none-eabi\\5.
 152              		.file 7 "Generated_Source\\PSoC5/ErikaOS_common_ee_types.inc"
 153              		.file 8 "Generated_Source\\PSoC5/ErikaOS_cortex_mx_ee_cpu.inc"
 154              		.file 9 "Generated_Source\\PSoC5/ErikaOS_ee_oo_common.inc"
 155              		.file 10 ".\\source\\bsw/global.h"
 156              		.file 11 ".\\source\\rte/rte_types.h"
 157              		.file 12 ".\\source\\rte/rte.h"
 158              		.file 13 ".\\source\\bsw\\tft/tft.h"
 159              		.file 14 ".\\source\\asw/clock_type.h"
 160              		.file 15 ".\\source\\rte/sc_control_type.h"
 161              		.file 16 ".\\source\\rte/sc_display_type.h"
 162              		.file 17 "Generated_Source\\PSoC5/ErikaOS_ee_oo_intfunc.inc"
 163              		.file 18 "Generated_Source\\PSoC5/ErikaOS_cortex_mx_ee_context.inc"
 164              		.file 19 "Generated_Source\\PSoC5/ErikaOS_common_ee_primitives.inc"
 165              		.file 20 "Generated_Source\\PSoC5/core_cm3.h"
 166              		.file 21 ".\\source\\rte/sp_common.h"
 167              		.file 22 "Generated_Source\\PSoC5/ErikaOS_ee_oo_kernel.inc"