ARM GAS  C:\Users\Admin\AppData\Local\Temp\ccYh4ged.s 			page 1


   1              		.syntax unified
   2              		.cpu cortex-m3
   3              		.fpu softvfp
   4              		.eabi_attribute 20, 1
   5              		.eabi_attribute 21, 1
   6              		.eabi_attribute 23, 3
   7              		.eabi_attribute 24, 1
   8              		.eabi_attribute 25, 1
   9              		.eabi_attribute 26, 1
  10              		.eabi_attribute 30, 1
  11              		.eabi_attribute 34, 1
  12              		.eabi_attribute 18, 4
  13              		.thumb
  14              		.syntax unified
  15              		.file	"swc_input.c"
  16              		.text
  17              	.Ltext0:
  18              		.cfi_sections	.debug_frame
  19              		.section	.text.INPUT_Clock_input_run,"ax",%progbits
  20              		.align	2
  21              		.global	INPUT_Clock_input_run
  22              		.thumb
  23              		.thumb_func
  24              		.type	INPUT_Clock_input_run, %function
  25              	INPUT_Clock_input_run:
  26              	.LFB144:
  27              		.file 1 "source\\asw\\swc_input.c"
   1:source\asw/swc_input.c **** /*
   2:source\asw/swc_input.c ****  * Filename: swc_input.c
   3:source\asw/swc_input.c ****  *
   4:source\asw/swc_input.c ****  * Author: Autogenerated by H-DA RTE Generator, (c) Prof. Fromm
   5:source\asw/swc_input.c ****  *
   6:source\asw/swc_input.c ****  * description: Software component for input
   7:source\asw/swc_input.c ****  * name: swc_Input
   8:source\asw/swc_input.c ****  * shortname: Input
   9:source\asw/swc_input.c ****  *
  10:source\asw/swc_input.c ****  */
  11:source\asw/swc_input.c **** 
  12:source\asw/swc_input.c **** #include "project.h"
  13:source\asw/swc_input.c **** #include "global.h"
  14:source\asw/swc_input.c **** #include "rte.h"
  15:source\asw/swc_input.c **** #include "rte_types.h"
  16:source\asw/swc_input.c **** #include "swc_input.h"
  17:source\asw/swc_input.c **** 
  18:source\asw/swc_input.c **** 
  19:source\asw/swc_input.c **** 
  20:source\asw/swc_input.c **** /* USER CODE START SWC_INPUT_INCLUDE */
  21:source\asw/swc_input.c **** 
  22:source\asw/swc_input.c **** /* USER CODE END SWC_INPUT_INCLUDE */
  23:source\asw/swc_input.c **** 
  24:source\asw/swc_input.c **** 
  25:source\asw/swc_input.c **** #include "sp_common.h"
  26:source\asw/swc_input.c **** 
  27:source\asw/swc_input.c **** /* USER CODE START SWC_INPUT_USERDEFINITIONS */
  28:source\asw/swc_input.c **** #include "clock.h"
  29:source\asw/swc_input.c **** /* USER CODE END SWC_INPUT_USERDEFINITIONS */
  30:source\asw/swc_input.c **** 
ARM GAS  C:\Users\Admin\AppData\Local\Temp\ccYh4ged.s 			page 2


  31:source\asw/swc_input.c **** 
  32:source\asw/swc_input.c **** 
  33:source\asw/swc_input.c **** /*
  34:source\asw/swc_input.c ****  * component: swc_Input
  35:source\asw/swc_input.c ****  * cycletime: 50
  36:source\asw/swc_input.c ****  * description: Runnable for input to clock
  37:source\asw/swc_input.c ****  * events: 
  38:source\asw/swc_input.c ****  * name: INPUT_Clock_input_run
  39:source\asw/swc_input.c ****  * shortname: Clock_input
  40:source\asw/swc_input.c ****  * signalIN: 
  41:source\asw/swc_input.c ****  * signalOUT: so_ButtonEvent
  42:source\asw/swc_input.c ****  * task: tsk_io
  43:source\asw/swc_input.c ****  */
  44:source\asw/swc_input.c **** void INPUT_Clock_input_run(RTE_event ev){
  28              		.loc 1 44 0
  29              		.cfi_startproc
  30              		@ args = 0, pretend = 0, frame = 120
  31              		@ frame_needed = 0, uses_anonymous_args = 0
  32              	.LVL0:
  33 0000 F0B5     		push	{r4, r5, r6, r7, lr}
  34              		.cfi_def_cfa_offset 20
  35              		.cfi_offset 4, -20
  36              		.cfi_offset 5, -16
  37              		.cfi_offset 6, -12
  38              		.cfi_offset 7, -8
  39              		.cfi_offset 14, -4
  40 0002 9FB0     		sub	sp, sp, #124
  41              		.cfi_def_cfa_offset 144
  42              	.LVL1:
  43              	.LBB20:
  44              	.LBB21:
  45              		.file 2 ".\\source\\rte/sc_input.h"
   1:.\source\rte/sc_input.h **** 
   2:.\source\rte/sc_input.h **** 
   3:.\source\rte/sc_input.h **** /**
   4:.\source\rte/sc_input.h ****  *  file    SC_INPUT_signal.h
   5:.\source\rte/sc_input.h ****  *
   6:.\source\rte/sc_input.h ****  *  brief   signal base class for signal sc_input
   7:.\source\rte/sc_input.h ****  *
   8:.\source\rte/sc_input.h ****  *  author  Autogenerated, Peter Fromm       <peter.fromm@h-da.de>
   9:.\source\rte/sc_input.h ****  *
  10:.\source\rte/sc_input.h ****  * description: Signal class for clock input
  11:.\source\rte/sc_input.h ****  * name: sc_Input
  12:.\source\rte/sc_input.h ****  * shortname: Input
  13:.\source\rte/sc_input.h ****  *
  14:.\source\rte/sc_input.h ****  */
  15:.\source\rte/sc_input.h **** 
  16:.\source\rte/sc_input.h **** 
  17:.\source\rte/sc_input.h **** 
  18:.\source\rte/sc_input.h **** #ifndef SC_INPUT_SIGNAL_H_INCLUDED
  19:.\source\rte/sc_input.h **** #define SC_INPUT_SIGNAL_H_INCLUDED
  20:.\source\rte/sc_input.h **** 
  21:.\source\rte/sc_input.h **** /*================================================[ public includes  ]=============================
  22:.\source\rte/sc_input.h **** #include "global.h"
  23:.\source\rte/sc_input.h **** #include "project.h"
  24:.\source\rte/sc_input.h **** #include "rte.h"
  25:.\source\rte/sc_input.h **** #include "rte_types.h"
ARM GAS  C:\Users\Admin\AppData\Local\Temp\ccYh4ged.s 			page 3


  26:.\source\rte/sc_input.h **** 
  27:.\source\rte/sc_input.h **** #include "sc_input_type.h"
  28:.\source\rte/sc_input.h **** 
  29:.\source\rte/sc_input.h **** 
  30:.\source\rte/sc_input.h **** /**************************************************************************************************
  31:.\source\rte/sc_input.h **** /* The driver API block																						*/
  32:.\source\rte/sc_input.h **** /**************************************************************************************************
  33:.\source\rte/sc_input.h ****                                                                                                    
  34:.\source\rte/sc_input.h **** /**
  35:.\source\rte/sc_input.h ****  *  Definition of function types for driver interfaces.
  36:.\source\rte/sc_input.h ****  *  I-Port
  37:.\source\rte/sc_input.h ****  */
  38:.\source\rte/sc_input.h **** typedef RC_t (*SC_INPUT_driverIn_t)(SC_INPUT_data_t * const);
  39:.\source\rte/sc_input.h **** 
  40:.\source\rte/sc_input.h **** /**
  41:.\source\rte/sc_input.h ****  *  Definition of function types for driver interfaces.
  42:.\source\rte/sc_input.h ****  *  O-Port
  43:.\source\rte/sc_input.h ****  */
  44:.\source\rte/sc_input.h **** typedef RC_t (*SC_INPUT_driverOut_t)( const SC_INPUT_data_t * const);
  45:.\source\rte/sc_input.h **** 
  46:.\source\rte/sc_input.h **** 
  47:.\source\rte/sc_input.h **** /**************************************************************************************************
  48:.\source\rte/sc_input.h **** /* The signal configuration API block																				*/
  49:.\source\rte/sc_input.h **** /**************************************************************************************************
  50:.\source\rte/sc_input.h **** 
  51:.\source\rte/sc_input.h **** /**
  52:.\source\rte/sc_input.h ****  * Instances of the struct SC_INPUT_cfg_t represent the signal object configuration.
  53:.\source\rte/sc_input.h ****  */
  54:.\source\rte/sc_input.h **** struct SC_INPUT_cfg_s
  55:.\source\rte/sc_input.h **** {
  56:.\source\rte/sc_input.h ****     /**
  57:.\source\rte/sc_input.h ****      * Function pointer to the input driver
  58:.\source\rte/sc_input.h ****      */
  59:.\source\rte/sc_input.h ****     SC_INPUT_driverIn_t const inDriver;
  60:.\source\rte/sc_input.h **** 
  61:.\source\rte/sc_input.h ****     /**
  62:.\source\rte/sc_input.h ****      * Function pointer to the output driver table
  63:.\source\rte/sc_input.h ****      */
  64:.\source\rte/sc_input.h ****    SC_INPUT_driverOut_t const outDriver;
  65:.\source\rte/sc_input.h ****    
  66:.\source\rte/sc_input.h ****     /**
  67:.\source\rte/sc_input.h ****      * Event onUpdate
  68:.\source\rte/sc_input.h ****      */
  69:.\source\rte/sc_input.h ****     EventMaskType const evOnUpdate;
  70:.\source\rte/sc_input.h ****     
  71:.\source\rte/sc_input.h ****     
  72:.\source\rte/sc_input.h ****     /**
  73:.\source\rte/sc_input.h ****      * Event onError
  74:.\source\rte/sc_input.h ****      */
  75:.\source\rte/sc_input.h ****     EventMaskType const evOnError;
  76:.\source\rte/sc_input.h ****     
  77:.\source\rte/sc_input.h ****     /**
  78:.\source\rte/sc_input.h ****      * Task Count onUpdate
  79:.\source\rte/sc_input.h ****      */
  80:.\source\rte/sc_input.h ****     size_t const onUpdateTaskCount;
  81:.\source\rte/sc_input.h **** 
  82:.\source\rte/sc_input.h ****     /**
ARM GAS  C:\Users\Admin\AppData\Local\Temp\ccYh4ged.s 			page 4


  83:.\source\rte/sc_input.h ****      * Task List onUpdate
  84:.\source\rte/sc_input.h ****      */
  85:.\source\rte/sc_input.h ****     TaskTypeArray* const onUpdateTasks;
  86:.\source\rte/sc_input.h ****     
  87:.\source\rte/sc_input.h ****     /**
  88:.\source\rte/sc_input.h ****      * Task Count onError
  89:.\source\rte/sc_input.h ****      */
  90:.\source\rte/sc_input.h ****     size_t const onErrorTaskCount;
  91:.\source\rte/sc_input.h **** 
  92:.\source\rte/sc_input.h ****     /**
  93:.\source\rte/sc_input.h ****      * Task List onError
  94:.\source\rte/sc_input.h ****      */
  95:.\source\rte/sc_input.h ****     TaskTypeArray* const onErrorTasks;
  96:.\source\rte/sc_input.h **** 	
  97:.\source\rte/sc_input.h **** 	
  98:.\source\rte/sc_input.h **** 	/**
  99:.\source\rte/sc_input.h **** 	 * Ressourse is active? We need an additional boolean as a ressource value 0 is valid.
 100:.\source\rte/sc_input.h **** 	 */
 101:.\source\rte/sc_input.h **** 	 boolean_t const resourceActive;
 102:.\source\rte/sc_input.h **** 	 
 103:.\source\rte/sc_input.h **** 	/**
 104:.\source\rte/sc_input.h **** 	 * Ressourse 
 105:.\source\rte/sc_input.h **** 	 */
 106:.\source\rte/sc_input.h **** 	 ResourceType const resource;
 107:.\source\rte/sc_input.h **** 
 108:.\source\rte/sc_input.h **** };                                                                                                 
 109:.\source\rte/sc_input.h **** typedef const struct SC_INPUT_cfg_s SC_INPUT_cfg_t;
 110:.\source\rte/sc_input.h ****                               
 111:.\source\rte/sc_input.h **** /**************************************************************************************************
 112:.\source\rte/sc_input.h **** /* The data interface block																							*/
 113:.\source\rte/sc_input.h **** /**************************************************************************************************
 114:.\source\rte/sc_input.h **** 
 115:.\source\rte/sc_input.h ****                                                                                                    
 116:.\source\rte/sc_input.h **** 							  
 117:.\source\rte/sc_input.h **** /**
 118:.\source\rte/sc_input.h ****  * Instances of the struct SC_INPUT_t represent the signal objects.
 119:.\source\rte/sc_input.h ****  * A signal object contains the current application value 'value' as well as relevant meta data.
 120:.\source\rte/sc_input.h ****  */
 121:.\source\rte/sc_input.h **** struct SC_INPUT_s
 122:.\source\rte/sc_input.h **** {                                                                                                  
 123:.\source\rte/sc_input.h **** 
 124:.\source\rte/sc_input.h **** 	/**
 125:.\source\rte/sc_input.h **** 	 * Data buffer for the application value
 126:.\source\rte/sc_input.h **** 	 */
 127:.\source\rte/sc_input.h ****     SC_INPUT_data_t value;
 128:.\source\rte/sc_input.h **** 
 129:.\source\rte/sc_input.h ****     /**
 130:.\source\rte/sc_input.h ****      * Current signal status
 131:.\source\rte/sc_input.h ****      */
 132:.\source\rte/sc_input.h ****     RTE_signalStatus_t status;
 133:.\source\rte/sc_input.h **** 
 134:.\source\rte/sc_input.h ****     /**
 135:.\source\rte/sc_input.h ****      * Current age of the signal (in calling cycles)
 136:.\source\rte/sc_input.h ****      */
 137:.\source\rte/sc_input.h ****     uint32_t age;
 138:.\source\rte/sc_input.h **** 
 139:.\source\rte/sc_input.h ****     /**
ARM GAS  C:\Users\Admin\AppData\Local\Temp\ccYh4ged.s 			page 5


 140:.\source\rte/sc_input.h ****      * Pointer to the signal configuration
 141:.\source\rte/sc_input.h ****      */
 142:.\source\rte/sc_input.h **** 	const SC_INPUT_cfg_t * const    pSigCfg;
 143:.\source\rte/sc_input.h **** 
 144:.\source\rte/sc_input.h **** };                                                                                                 
 145:.\source\rte/sc_input.h **** typedef struct SC_INPUT_s SC_INPUT_t;
 146:.\source\rte/sc_input.h **** 
 147:.\source\rte/sc_input.h **** /**************************************************************************************************
 148:.\source\rte/sc_input.h **** /* Signal initialisation   																							*/
 149:.\source\rte/sc_input.h **** /**************************************************************************************************
 150:.\source\rte/sc_input.h **** 
 151:.\source\rte/sc_input.h **** /**
 152:.\source\rte/sc_input.h ****  * Initializes a signal instance with a passed init value.
 153:.\source\rte/sc_input.h ****  * Depending on the configured conversion or scaling function the raw_value will be calculated.
 154:.\source\rte/sc_input.h ****  * Signal status will change from RTE_SIGNALSTATUS_STARTUP to RTE_SIGNALSTATUS_INITIALIZED.
 155:.\source\rte/sc_input.h ****  *
 156:.\source\rte/sc_input.h ****  * @param  SC_INPUT_t * const signal: Pointer to the signal object which will be initialised
 157:.\source\rte/sc_input.h ****  * @return RC_t: standard return code, currently only RC_SUCCESS
 158:.\source\rte/sc_input.h ****  *
 159:.\source\rte/sc_input.h ****  **/
 160:.\source\rte/sc_input.h **** inline RC_t RTE_SC_INPUT_init( SC_INPUT_t * const signal )
 161:.\source\rte/sc_input.h **** {                                                                                                  
 162:.\source\rte/sc_input.h **** 
 163:.\source\rte/sc_input.h ****    RC_t ret = RC_SUCCESS;
 164:.\source\rte/sc_input.h **** 
 165:.\source\rte/sc_input.h ****    //Set value and raw value
 166:.\source\rte/sc_input.h ****    signal->value  = SC_INPUT_INIT_DATA;
 167:.\source\rte/sc_input.h ****    signal->age    = 0;
 168:.\source\rte/sc_input.h ****    signal->status = RTE_SIGNALSTATUS_INITIALIZED;
 169:.\source\rte/sc_input.h **** 
 170:.\source\rte/sc_input.h ****    return ret;
 171:.\source\rte/sc_input.h **** }
 172:.\source\rte/sc_input.h **** 
 173:.\source\rte/sc_input.h **** /**************************************************************************************************
 174:.\source\rte/sc_input.h **** /* Status and timeout control																						*/
 175:.\source\rte/sc_input.h **** /**************************************************************************************************
 176:.\source\rte/sc_input.h **** 
 177:.\source\rte/sc_input.h **** /**
 178:.\source\rte/sc_input.h ****  *  Returns the current signal status of the passed signal instance.
 179:.\source\rte/sc_input.h ****  *
 180:.\source\rte/sc_input.h ****  * @param  SC_INPUT_t * const signal: Pointer to the signal object
 181:.\source\rte/sc_input.h ****  * @return  sig_status_t: The current signal status
 182:.\source\rte/sc_input.h ****  *
 183:.\source\rte/sc_input.h ****  **/
 184:.\source\rte/sc_input.h **** inline RTE_signalStatus_t RTE_SC_INPUT_getStatus( const SC_INPUT_t * const signal )
 185:.\source\rte/sc_input.h **** {
 186:.\source\rte/sc_input.h ****    return signal->status;
 187:.\source\rte/sc_input.h **** }
 188:.\source\rte/sc_input.h **** 
 189:.\source\rte/sc_input.h **** 
 190:.\source\rte/sc_input.h **** /**
 191:.\source\rte/sc_input.h ****  *  Sets a new signal status of the passed signal instance by passing the new status.
 192:.\source\rte/sc_input.h ****  *
 193:.\source\rte/sc_input.h ****  * @param  SC_INPUT_t * const signal: Pointer to the signal object
 194:.\source\rte/sc_input.h ****  * @param  const sig_status_t status: New signal status
 195:.\source\rte/sc_input.h ****  * @return RC_t: standard return code, currently only RC_SUCCESS
 196:.\source\rte/sc_input.h ****  *
ARM GAS  C:\Users\Admin\AppData\Local\Temp\ccYh4ged.s 			page 6


 197:.\source\rte/sc_input.h ****  */
 198:.\source\rte/sc_input.h **** inline RC_t RTE_SC_INPUT_setStatus( SC_INPUT_t * const signal, const RTE_signalStatus_t status )
 199:.\source\rte/sc_input.h **** {
 200:.\source\rte/sc_input.h ****    signal->status = status;
 201:.\source\rte/sc_input.h ****    size_t taskNum=0;
 202:.\source\rte/sc_input.h ****    
 203:.\source\rte/sc_input.h ****    //Fire error events in case of invalid state
 204:.\source\rte/sc_input.h ****    if (signal->status == RTE_SIGNALSTATUS_INVALID)
 205:.\source\rte/sc_input.h ****    {
 206:.\source\rte/sc_input.h **** 	    //Pointer to the Taskarray, containing the tasks receiving the onUpdate events
 207:.\source\rte/sc_input.h **** 		TaskTypeArray* pTaskArray = signal->pSigCfg->onErrorTasks;
 208:.\source\rte/sc_input.h **** 
 209:.\source\rte/sc_input.h **** 		if (0 != signal->pSigCfg->evOnError && NULL != pTaskArray){
 210:.\source\rte/sc_input.h **** 			for( taskNum=0 ; taskNum < signal->pSigCfg->onErrorTaskCount ;taskNum++){
 211:.\source\rte/sc_input.h **** 				TaskType task = (*pTaskArray)[taskNum];
 212:.\source\rte/sc_input.h **** 				SetEvent( task, signal->pSigCfg->evOnError);
 213:.\source\rte/sc_input.h **** 			}
 214:.\source\rte/sc_input.h **** 		}
 215:.\source\rte/sc_input.h ****    }
 216:.\source\rte/sc_input.h ****    
 217:.\source\rte/sc_input.h ****    return RC_SUCCESS;
 218:.\source\rte/sc_input.h **** }
 219:.\source\rte/sc_input.h **** 
 220:.\source\rte/sc_input.h **** 
 221:.\source\rte/sc_input.h **** /**
 222:.\source\rte/sc_input.h ****  * Returns the count of refreshing trials (refresh, set or set_raw) that failed.
 223:.\source\rte/sc_input.h ****  * Prerquisite: The signal is refreshed cyclically
 224:.\source\rte/sc_input.h ****  *
 225:.\source\rte/sc_input.h ****  * @param  SC_INPUT_t * const signal: Pointer to the signal object
 226:.\source\rte/sc_input.h ****  * @return uint32_t: Number of cycles since the signal has been updated for the last time
 227:.\source\rte/sc_input.h ****  */
 228:.\source\rte/sc_input.h **** inline uint32_t RTE_SC_INPUT_getAge( const SC_INPUT_t * const signal )
 229:.\source\rte/sc_input.h **** {
 230:.\source\rte/sc_input.h ****    return signal->age;
 231:.\source\rte/sc_input.h **** }
 232:.\source\rte/sc_input.h **** 
 233:.\source\rte/sc_input.h **** /**
 234:.\source\rte/sc_input.h ****  * Should be called by application or driver if no new value can be provided.
 235:.\source\rte/sc_input.h ****  * @param  SC_INPUT_t * const signal: Pointer to the signal object
 236:.\source\rte/sc_input.h ****  * @param uint32_t increment: incrementvalue, typically in [ms]
 237:.\source\rte/sc_input.h ****  * @return void
 238:.\source\rte/sc_input.h ****  */
 239:.\source\rte/sc_input.h **** inline void RTE_SC_INPUT_incAge(  SC_INPUT_t * const signal , uint32_t increment)
 240:.\source\rte/sc_input.h **** {
 241:.\source\rte/sc_input.h **** 	   //Hack....
 242:.\source\rte/sc_input.h **** 	   if ( 0xFFFF0000 > (signal->age + increment) )
 243:.\source\rte/sc_input.h **** 	   {
 244:.\source\rte/sc_input.h **** 	      signal->age += increment;
 245:.\source\rte/sc_input.h **** 	   }
 246:.\source\rte/sc_input.h **** }
 247:.\source\rte/sc_input.h **** 
 248:.\source\rte/sc_input.h **** 
 249:.\source\rte/sc_input.h **** /**************************************************************************************************
 250:.\source\rte/sc_input.h **** /* Application Data read/write Interface																			*/
 251:.\source\rte/sc_input.h **** /**************************************************************************************************
 252:.\source\rte/sc_input.h **** 
 253:.\source\rte/sc_input.h **** /**
ARM GAS  C:\Users\Admin\AppData\Local\Temp\ccYh4ged.s 			page 7


 254:.\source\rte/sc_input.h ****  * Returns the current application value as pointer to the signal payload.
 255:.\source\rte/sc_input.h ****  * Careful: This is not threadsafe!!!
 256:.\source\rte/sc_input.h ****  *
 257:.\source\rte/sc_input.h ****  * @param  SC_INPUT_t * const signal: Pointer to the signal object
 258:.\source\rte/sc_input.h ****  * @return sc_input_data_t*: pointer to the current value of the application data buffer
 259:.\source\rte/sc_input.h ****  *
 260:.\source\rte/sc_input.h ****  **/
 261:.\source\rte/sc_input.h **** inline SC_INPUT_data_t* RTE_SC_INPUT_getPtr( SC_INPUT_t * const signal )
 262:.\source\rte/sc_input.h **** {               
 263:.\source\rte/sc_input.h ****    //Todo: Critical region cannot be protected using return values																						
 264:.\source\rte/sc_input.h ****    return &(signal->value);                                                                        
 265:.\source\rte/sc_input.h **** }
 266:.\source\rte/sc_input.h **** 
 267:.\source\rte/sc_input.h **** /**
 268:.\source\rte/sc_input.h ****  * Returns the current application value of the passed signal instance.
 269:.\source\rte/sc_input.h ****  *
 270:.\source\rte/sc_input.h ****  * @param  SC_INPUT_t * const signal: Pointer to the signal object
 271:.\source\rte/sc_input.h ****  * @return sc_input_data_t: current value of the application data buffer
 272:.\source\rte/sc_input.h ****  *
 273:.\source\rte/sc_input.h ****  **/
 274:.\source\rte/sc_input.h **** inline SC_INPUT_data_t RTE_SC_INPUT_get( const SC_INPUT_t * const signal )
 275:.\source\rte/sc_input.h **** {               
 276:.\source\rte/sc_input.h ****    //Todo: Critical region cannot be protected using return values																						
 277:.\source\rte/sc_input.h ****    return signal->value;                                                                           
 278:.\source\rte/sc_input.h **** }                                                                                                  
 279:.\source\rte/sc_input.h ****                                                                                                    
 280:.\source\rte/sc_input.h **** /**
 281:.\source\rte/sc_input.h ****  * Returns the current application value of the passed signal instance threadsafe.
 282:.\source\rte/sc_input.h ****  *
 283:.\source\rte/sc_input.h ****  * @param  SC_INPUT_t * const signal: Pointer to the signal object
 284:.\source\rte/sc_input.h ****  * @param  SC_INPUT_data_t* data: Pointer to the return data Pointer to the signal object
 285:.\source\rte/sc_input.h ****  * @return RC_SUCCESS
 286:.\source\rte/sc_input.h ****  *
 287:.\source\rte/sc_input.h ****  **/
 288:.\source\rte/sc_input.h **** inline RC_t RTE_SC_INPUT_getThreadSafe( const SC_INPUT_t * const signal, SC_INPUT_data_t * const da
 289:.\source\rte/sc_input.h **** {    
 290:.\source\rte/sc_input.h ****    if (TRUE == signal->pSigCfg->resourceActive) GetResource(signal->pSigCfg->resource);
 291:.\source\rte/sc_input.h ****    *data = signal->value;
 292:.\source\rte/sc_input.h ****    if (TRUE == signal->pSigCfg->resourceActive) ReleaseResource(signal->pSigCfg->resource);        
 293:.\source\rte/sc_input.h **** 
 294:.\source\rte/sc_input.h ****    return RC_SUCCESS;                                                                   
 295:.\source\rte/sc_input.h ****    
 296:.\source\rte/sc_input.h **** }                                                                                                  
 297:.\source\rte/sc_input.h ****                                                                                                    
 298:.\source\rte/sc_input.h **** /**
 299:.\source\rte/sc_input.h ****  * Sets a new application value to the passed signal instance by passing the new value.
 300:.\source\rte/sc_input.h ****  * The corresponding driver raw value will be calculated immediately by using the default conversio
 301:.\source\rte/sc_input.h ****  * signal specific scaling function.
 302:.\source\rte/sc_input.h ****  * The signal age will be set to 0 and the new status will be 'RTE_SIGNALSTATUS_VALID'.
 303:.\source\rte/sc_input.h ****  *
 304:.\source\rte/sc_input.h ****  * @param  SC_INPUT_t * const signal: Pointer to the signal object
 305:.\source\rte/sc_input.h ****  * @param  sc_input_data_t const value: value for the application data buffer
 306:.\source\rte/sc_input.h ****  * @return RC_t: standard return code, currently only RC_SUCCESS
 307:.\source\rte/sc_input.h ****  *
 308:.\source\rte/sc_input.h ****  **/
 309:.\source\rte/sc_input.h **** inline RC_t RTE_SC_INPUT_set(SC_INPUT_t * const signal, const SC_INPUT_data_t value  )
 310:.\source\rte/sc_input.h **** {
ARM GAS  C:\Users\Admin\AppData\Local\Temp\ccYh4ged.s 			page 8


 311:.\source\rte/sc_input.h **** 
 312:.\source\rte/sc_input.h ****    RC_t ret = RC_SUCCESS;
 313:.\source\rte/sc_input.h ****    size_t taskNum=0;
 314:.\source\rte/sc_input.h **** 
 315:.\source\rte/sc_input.h **** 
 316:.\source\rte/sc_input.h ****    if (TRUE == signal->pSigCfg->resourceActive) GetResource(signal->pSigCfg->resource);
 317:.\source\rte/sc_input.h ****    signal->value  = value;
 318:.\source\rte/sc_input.h ****    signal->age    = 0;
 319:.\source\rte/sc_input.h ****    signal->status = RTE_SIGNALSTATUS_VALID;
 320:.\source\rte/sc_input.h ****    if (TRUE == signal->pSigCfg->resourceActive) ReleaseResource(signal->pSigCfg->resource);
 321:.\source\rte/sc_input.h **** 
 322:.\source\rte/sc_input.h ****    //Pointer to the Taskarray, containing the tasks receiving the onUpdate events
 323:.\source\rte/sc_input.h ****    TaskTypeArray* pTaskArray = signal->pSigCfg->onUpdateTasks;
 324:.\source\rte/sc_input.h **** 
 325:.\source\rte/sc_input.h ****    if (0 != signal->pSigCfg->evOnUpdate && NULL != pTaskArray){
 326:.\source\rte/sc_input.h ****       for( taskNum=0 ; taskNum < signal->pSigCfg->onUpdateTaskCount ;taskNum++){
 327:.\source\rte/sc_input.h **** 		  
 328:.\source\rte/sc_input.h ****           TaskType task = (*pTaskArray)[taskNum];
 329:.\source\rte/sc_input.h **** 	      SetEvent( task, signal->pSigCfg->evOnUpdate);
 330:.\source\rte/sc_input.h ****       }
 331:.\source\rte/sc_input.h ****    }
 332:.\source\rte/sc_input.h **** 
 333:.\source\rte/sc_input.h ****    return ret;
 334:.\source\rte/sc_input.h **** }                                                                                                  
 335:.\source\rte/sc_input.h ****                                                                                                    
 336:.\source\rte/sc_input.h ****                                                                                                    
 337:.\source\rte/sc_input.h **** /**************************************************************************************************
 338:.\source\rte/sc_input.h **** /* Call functions to the connected drivers																			*/
 339:.\source\rte/sc_input.h **** /**************************************************************************************************
 340:.\source\rte/sc_input.h **** 
 341:.\source\rte/sc_input.h ****                                                                                                    
 342:.\source\rte/sc_input.h **** /**
 343:.\source\rte/sc_input.h ****  *  Calls the connected driver interface to get a new value.
 344:.\source\rte/sc_input.h ****  *
 345:.\source\rte/sc_input.h ****  * @param SC_INPUT_t * const signal: Pointer to the signal object
 346:.\source\rte/sc_input.h ****  * @return  RC_t: Return value of the driver call
 347:.\source\rte/sc_input.h ****  *
 348:.\source\rte/sc_input.h ****  */
 349:.\source\rte/sc_input.h **** inline RC_t RTE_SC_INPUT_pullPort( SC_INPUT_t * const signal )
 350:.\source\rte/sc_input.h **** {                                                                                                  
 351:.\source\rte/sc_input.h ****    RC_t ret = RC_SUCCESS;
 352:.\source\rte/sc_input.h **** 
 353:.\source\rte/sc_input.h ****                                                                                                    
 354:.\source\rte/sc_input.h ****    if ( NULL != signal->pSigCfg->inDriver )
  46              		.loc 2 354 0
  47 0004 354B     		ldr	r3, .L14
  48 0006 5E6C     		ldr	r6, [r3, #68]
  49 0008 3368     		ldr	r3, [r6]
  50 000a 002B     		cmp	r3, #0
  51 000c 5ED0     		beq	.L10
  52              	.LBB22:
 355:.\source\rte/sc_input.h ****    {
 356:.\source\rte/sc_input.h **** 	  SC_INPUT_data_t value = signal->value;
  53              		.loc 2 356 0
  54 000e 6C46     		mov	r4, sp
  55 0010 324D     		ldr	r5, .L14
  56 0012 0FCD     		ldmia	r5!, {r0, r1, r2, r3}
ARM GAS  C:\Users\Admin\AppData\Local\Temp\ccYh4ged.s 			page 9


  57              	.LVL2:
  58 0014 0FC4     		stmia	r4!, {r0, r1, r2, r3}
  59 0016 0FCD     		ldmia	r5!, {r0, r1, r2, r3}
  60 0018 0FC4     		stmia	r4!, {r0, r1, r2, r3}
  61 001a 0FCD     		ldmia	r5!, {r0, r1, r2, r3}
  62 001c 0FC4     		stmia	r4!, {r0, r1, r2, r3}
  63 001e 95E80700 		ldmia	r5, {r0, r1, r2}
  64 0022 84E80700 		stmia	r4, {r0, r1, r2}
 357:.\source\rte/sc_input.h ****       ret = signal->pSigCfg->inDriver(&value);
  65              		.loc 2 357 0
  66 0026 3368     		ldr	r3, [r6]
  67 0028 6846     		mov	r0, sp
  68 002a 9847     		blx	r3
  69              	.LVL3:
 358:.\source\rte/sc_input.h ****                                                                                                    
 359:.\source\rte/sc_input.h ****       if ( ret == RC_SUCCESS )                                                                     
  70              		.loc 2 359 0
  71 002c 0646     		mov	r6, r0
  72 002e 0028     		cmp	r0, #0
  73 0030 34D1     		bne	.L3
  74              	.LVL4:
  75 0032 0FAC     		add	r4, sp, #60
  76 0034 6D46     		mov	r5, sp
  77 0036 0FCD     		ldmia	r5!, {r0, r1, r2, r3}
  78              	.LVL5:
  79 0038 0FC4     		stmia	r4!, {r0, r1, r2, r3}
  80 003a 0FCD     		ldmia	r5!, {r0, r1, r2, r3}
  81 003c 0FC4     		stmia	r4!, {r0, r1, r2, r3}
  82 003e 0FCD     		ldmia	r5!, {r0, r1, r2, r3}
  83 0040 0FC4     		stmia	r4!, {r0, r1, r2, r3}
  84 0042 95E80700 		ldmia	r5, {r0, r1, r2}
  85 0046 84E80700 		stmia	r4, {r0, r1, r2}
  86              	.LVL6:
  87              	.LBB23:
  88              	.LBB24:
 316:.\source\rte/sc_input.h ****    signal->value  = value;
  89              		.loc 2 316 0
  90 004a 244F     		ldr	r7, .L14
  91 004c D7F844E0 		ldr	lr, [r7, #68]
 317:.\source\rte/sc_input.h ****    signal->age    = 0;
  92              		.loc 2 317 0
  93 0050 3C46     		mov	r4, r7
  94 0052 0FAD     		add	r5, sp, #60
  95 0054 0FCD     		ldmia	r5!, {r0, r1, r2, r3}
  96 0056 0FC4     		stmia	r4!, {r0, r1, r2, r3}
  97 0058 0FCD     		ldmia	r5!, {r0, r1, r2, r3}
  98 005a 0FC4     		stmia	r4!, {r0, r1, r2, r3}
  99 005c 0FCD     		ldmia	r5!, {r0, r1, r2, r3}
 100 005e 0FC4     		stmia	r4!, {r0, r1, r2, r3}
 101 0060 95E80700 		ldmia	r5, {r0, r1, r2}
 102 0064 84E80700 		stmia	r4, {r0, r1, r2}
 318:.\source\rte/sc_input.h ****    signal->status = RTE_SIGNALSTATUS_VALID;
 103              		.loc 2 318 0
 104 0068 0023     		movs	r3, #0
 105 006a 3B64     		str	r3, [r7, #64]
 319:.\source\rte/sc_input.h ****    if (TRUE == signal->pSigCfg->resourceActive) ReleaseResource(signal->pSigCfg->resource);
 106              		.loc 2 319 0
ARM GAS  C:\Users\Admin\AppData\Local\Temp\ccYh4ged.s 			page 10


 107 006c 0223     		movs	r3, #2
 108 006e 87F83C30 		strb	r3, [r7, #60]
 323:.\source\rte/sc_input.h **** 
 109              		.loc 2 323 0
 110 0072 DEF81450 		ldr	r5, [lr, #20]
 111              	.LVL7:
 325:.\source\rte/sc_input.h ****       for( taskNum=0 ; taskNum < signal->pSigCfg->onUpdateTaskCount ;taskNum++){
 112              		.loc 2 325 0
 113 0076 DEF80830 		ldr	r3, [lr, #8]
 114 007a 43B3     		cbz	r3, .L2
 115 007c 3DB9     		cbnz	r5, .L11
 116 007e 26E0     		b	.L2
 117              	.LVL8:
 118              	.L6:
 119              	.LBB25:
 329:.\source\rte/sc_input.h ****       }
 120              		.loc 2 329 0
 121 0080 9968     		ldr	r1, [r3, #8]
 122 0082 55F82400 		ldr	r0, [r5, r4, lsl #2]
 123 0086 FFF7FEFF 		bl	EE_oo_SetEvent
 124              	.LVL9:
 125              	.LBE25:
 326:.\source\rte/sc_input.h **** 		  
 126              		.loc 2 326 0
 127 008a 0134     		adds	r4, r4, #1
 128              	.LVL10:
 129 008c 00E0     		b	.L5
 130              	.LVL11:
 131              	.L11:
 325:.\source\rte/sc_input.h ****       for( taskNum=0 ; taskNum < signal->pSigCfg->onUpdateTaskCount ;taskNum++){
 132              		.loc 2 325 0
 133 008e 0024     		movs	r4, #0
 134              	.LVL12:
 135              	.L5:
 326:.\source\rte/sc_input.h **** 		  
 136              		.loc 2 326 0
 137 0090 124B     		ldr	r3, .L14
 138 0092 5B6C     		ldr	r3, [r3, #68]
 139 0094 1A69     		ldr	r2, [r3, #16]
 140 0096 9442     		cmp	r4, r2
 141 0098 F2D3     		bcc	.L6
 142 009a 18E0     		b	.L2
 143              	.LVL13:
 144              	.L3:
 145              	.LBE24:
 146              	.LBE23:
 147              	.LBB26:
 148              	.LBB27:
 200:.\source\rte/sc_input.h ****    size_t taskNum=0;
 149              		.loc 2 200 0
 150 009c 0F4B     		ldr	r3, .L14
 151 009e 0322     		movs	r2, #3
 152 00a0 83F83C20 		strb	r2, [r3, #60]
 153              	.LVL14:
 154              	.LBB28:
 207:.\source\rte/sc_input.h **** 
 155              		.loc 2 207 0
ARM GAS  C:\Users\Admin\AppData\Local\Temp\ccYh4ged.s 			page 11


 156 00a4 5B6C     		ldr	r3, [r3, #68]
 157 00a6 DD69     		ldr	r5, [r3, #28]
 158              	.LVL15:
 209:.\source\rte/sc_input.h **** 			for( taskNum=0 ; taskNum < signal->pSigCfg->onErrorTaskCount ;taskNum++){
 159              		.loc 2 209 0
 160 00a8 DB68     		ldr	r3, [r3, #12]
 161 00aa 83B1     		cbz	r3, .L2
 162 00ac 3DB9     		cbnz	r5, .L12
 163 00ae 0EE0     		b	.L2
 164              	.LVL16:
 165              	.L8:
 166              	.LBB29:
 212:.\source\rte/sc_input.h **** 			}
 167              		.loc 2 212 0
 168 00b0 D968     		ldr	r1, [r3, #12]
 169 00b2 55F82400 		ldr	r0, [r5, r4, lsl #2]
 170 00b6 FFF7FEFF 		bl	EE_oo_SetEvent
 171              	.LVL17:
 172              	.LBE29:
 210:.\source\rte/sc_input.h **** 				TaskType task = (*pTaskArray)[taskNum];
 173              		.loc 2 210 0
 174 00ba 0134     		adds	r4, r4, #1
 175              	.LVL18:
 176 00bc 00E0     		b	.L7
 177              	.LVL19:
 178              	.L12:
 209:.\source\rte/sc_input.h **** 			for( taskNum=0 ; taskNum < signal->pSigCfg->onErrorTaskCount ;taskNum++){
 179              		.loc 2 209 0
 180 00be 0024     		movs	r4, #0
 181              	.LVL20:
 182              	.L7:
 210:.\source\rte/sc_input.h **** 				TaskType task = (*pTaskArray)[taskNum];
 183              		.loc 2 210 0
 184 00c0 064B     		ldr	r3, .L14
 185 00c2 5B6C     		ldr	r3, [r3, #68]
 186 00c4 9A69     		ldr	r2, [r3, #24]
 187 00c6 9442     		cmp	r4, r2
 188 00c8 F2D3     		bcc	.L8
 189 00ca 00E0     		b	.L2
 190              	.LVL21:
 191              	.L10:
 192              	.LBE28:
 193              	.LBE27:
 194              	.LBE26:
 195              	.LBE22:
 351:.\source\rte/sc_input.h **** 
 196              		.loc 2 351 0
 197 00cc 0026     		movs	r6, #0
 198              	.LVL22:
 199              	.L2:
 200              	.LBE21:
 201              	.LBE20:
  45:source\asw/swc_input.c **** 	
  46:source\asw/swc_input.c **** 	/* USER CODE START INPUT_Clock_input_run */
  47:source\asw/swc_input.c ****     
  48:source\asw/swc_input.c ****     RC_t result = RTE_SC_INPUT_pullPort(&SO_BUTTONEVENT_signal);
  49:source\asw/swc_input.c ****     
ARM GAS  C:\Users\Admin\AppData\Local\Temp\ccYh4ged.s 			page 12


  50:source\asw/swc_input.c ****     if (result != RC_SUCCESS)
 202              		.loc 1 50 0
 203 00ce 16B1     		cbz	r6, .L1
  51:source\asw/swc_input.c ****     {      
  52:source\asw/swc_input.c ****         UART_LOG_PutString("Invalid input data"); 
 204              		.loc 1 52 0
 205 00d0 0348     		ldr	r0, .L14+4
 206 00d2 FFF7FEFF 		bl	UART_LOG_PutString
 207              	.LVL23:
 208              	.L1:
  53:source\asw/swc_input.c ****     }
  54:source\asw/swc_input.c ****     
  55:source\asw/swc_input.c ****     /* USER CODE END INPUT_Clock_input_run */
  56:source\asw/swc_input.c **** }
 209              		.loc 1 56 0
 210 00d6 1FB0     		add	sp, sp, #124
 211              		.cfi_def_cfa_offset 20
 212              		@ sp needed
 213 00d8 F0BD     		pop	{r4, r5, r6, r7, pc}
 214              	.L15:
 215 00da 00BF     		.align	2
 216              	.L14:
 217 00dc 00000000 		.word	SO_BUTTONEVENT_signal
 218 00e0 00000000 		.word	.LC0
 219              		.cfi_endproc
 220              	.LFE144:
 221              		.size	INPUT_Clock_input_run, .-INPUT_Clock_input_run
 222              		.section	.rodata.str1.4,"aMS",%progbits,1
 223              		.align	2
 224              	.LC0:
 225 0000 496E7661 		.ascii	"Invalid input data\000"
 225      6C696420 
 225      696E7075 
 225      74206461 
 225      746100
 226              		.text
 227              	.Letext0:
 228              		.file 3 "d:\\psoc creator\\4.4\\psoc creator\\import\\gnu\\arm\\5.4.1\\arm-none-eabi\\include\\mac
 229              		.file 4 "d:\\psoc creator\\4.4\\psoc creator\\import\\gnu\\arm\\5.4.1\\arm-none-eabi\\include\\sys
 230              		.file 5 "d:\\psoc creator\\4.4\\psoc creator\\import\\gnu\\arm\\5.4.1\\lib\\gcc\\arm-none-eabi\\5.
 231              		.file 6 "Generated_Source\\PSoC5/ErikaOS_common_ee_types.inc"
 232              		.file 7 "Generated_Source\\PSoC5/ErikaOS_cortex_mx_ee_cpu.inc"
 233              		.file 8 "Generated_Source\\PSoC5/ErikaOS_ee_oo_common.inc"
 234              		.file 9 ".\\source\\bsw/global.h"
 235              		.file 10 ".\\source\\rte/rte_types.h"
 236              		.file 11 ".\\source\\rte/rte.h"
 237              		.file 12 ".\\source\\bsw\\tft/tft.h"
 238              		.file 13 ".\\source\\asw/clock_type.h"
 239              		.file 14 ".\\source\\asw/statemachine.h"
 240              		.file 15 ".\\source\\rte/sc_input_type.h"
 241              		.file 16 "Generated_Source\\PSoC5/ErikaOS_ee_oo_intfunc.inc"
 242              		.file 17 "Generated_Source\\PSoC5/ErikaOS_cortex_mx_ee_context.inc"
 243              		.file 18 "Generated_Source\\PSoC5/ErikaOS_common_ee_primitives.inc"
 244              		.file 19 "Generated_Source\\PSoC5/core_cm3.h"
 245              		.file 20 ".\\source\\rte/sp_common.h"
 246              		.file 21 "Generated_Source\\PSoC5/ErikaOS_ee_oo_kernel.inc"
 247              		.file 22 "Generated_Source\\PSoC5/UART_LOG.h"
ARM GAS  C:\Users\Admin\AppData\Local\Temp\ccYh4ged.s 			page 13

