ARM GAS  C:\Users\Admin\AppData\Local\Temp\cc9pAeWX.s 			page 1


   1              		.syntax unified
   2              		.cpu cortex-m3
   3              		.fpu softvfp
   4              		.eabi_attribute 20, 1
   5              		.eabi_attribute 21, 1
   6              		.eabi_attribute 23, 3
   7              		.eabi_attribute 24, 1
   8              		.eabi_attribute 25, 1
   9              		.eabi_attribute 26, 1
  10              		.eabi_attribute 30, 1
  11              		.eabi_attribute 34, 1
  12              		.eabi_attribute 18, 4
  13              		.thumb
  14              		.syntax unified
  15              		.file	"swc_control.c"
  16              		.text
  17              	.Ltext0:
  18              		.cfi_sections	.debug_frame
  19              		.section	.text.CONTROL_Clock_control_run,"ax",%progbits
  20              		.align	2
  21              		.global	CONTROL_Clock_control_run
  22              		.thumb
  23              		.thumb_func
  24              		.type	CONTROL_Clock_control_run, %function
  25              	CONTROL_Clock_control_run:
  26              	.LFB144:
  27              		.file 1 "source\\asw\\swc_control.c"
   1:source\asw/swc_control.c **** /*
   2:source\asw/swc_control.c ****  * Filename: swc_control.c
   3:source\asw/swc_control.c ****  *
   4:source\asw/swc_control.c ****  * Author: Autogenerated by H-DA RTE Generator, (c) Prof. Fromm
   5:source\asw/swc_control.c ****  *
   6:source\asw/swc_control.c ****  * description: Software component for control logic
   7:source\asw/swc_control.c ****  * name: swc_Control
   8:source\asw/swc_control.c ****  * shortname: Control
   9:source\asw/swc_control.c ****  *
  10:source\asw/swc_control.c ****  */
  11:source\asw/swc_control.c **** 
  12:source\asw/swc_control.c **** #include "project.h"
  13:source\asw/swc_control.c **** #include "global.h"
  14:source\asw/swc_control.c **** #include "rte.h"
  15:source\asw/swc_control.c **** #include "rte_types.h"
  16:source\asw/swc_control.c **** #include "swc_control.h"
  17:source\asw/swc_control.c **** 
  18:source\asw/swc_control.c **** 
  19:source\asw/swc_control.c **** 
  20:source\asw/swc_control.c **** /* USER CODE START SWC_CONTROL_INCLUDE */
  21:source\asw/swc_control.c **** 
  22:source\asw/swc_control.c **** /* USER CODE END SWC_CONTROL_INCLUDE */
  23:source\asw/swc_control.c **** 
  24:source\asw/swc_control.c **** 
  25:source\asw/swc_control.c **** #include "sp_common.h"
  26:source\asw/swc_control.c **** 
  27:source\asw/swc_control.c **** /* USER CODE START SWC_CONTROL_USERDEFINITIONS */
  28:source\asw/swc_control.c **** #include "clock.h"
  29:source\asw/swc_control.c **** /* USER CODE END SWC_CONTROL_USERDEFINITIONS */
  30:source\asw/swc_control.c **** 
ARM GAS  C:\Users\Admin\AppData\Local\Temp\cc9pAeWX.s 			page 2


  31:source\asw/swc_control.c **** 
  32:source\asw/swc_control.c **** 
  33:source\asw/swc_control.c **** /*
  34:source\asw/swc_control.c ****  * component: swc_Control
  35:source\asw/swc_control.c ****  * cycletime: 0
  36:source\asw/swc_control.c ****  * description: Runnable for control logic
  37:source\asw/swc_control.c ****  * events: ev_onData
  38:source\asw/swc_control.c ****  * name: CONTROL_Clock_control_run
  39:source\asw/swc_control.c ****  * shortname: Clock_control
  40:source\asw/swc_control.c ****  * signalIN: so_ButtonEvent
  41:source\asw/swc_control.c ****  * signalOUT: so_Control
  42:source\asw/swc_control.c ****  * task: tsk_control
  43:source\asw/swc_control.c ****  */
  44:source\asw/swc_control.c **** void CONTROL_Clock_control_run(RTE_event ev){
  28              		.loc 1 44 0
  29              		.cfi_startproc
  30              		@ args = 0, pretend = 0, frame = 64
  31              		@ frame_needed = 0, uses_anonymous_args = 0
  32              	.LVL0:
  33 0000 30B5     		push	{r4, r5, lr}
  34              		.cfi_def_cfa_offset 12
  35              		.cfi_offset 4, -12
  36              		.cfi_offset 5, -8
  37              		.cfi_offset 14, -4
  38 0002 91B0     		sub	sp, sp, #68
  39              		.cfi_def_cfa_offset 80
  40              	.LVL1:
  41              	.LBB4:
  42              	.LBB5:
  43              		.file 2 ".\\source\\rte/sc_input.h"
   1:.\source\rte/sc_input.h **** 
   2:.\source\rte/sc_input.h **** 
   3:.\source\rte/sc_input.h **** /**
   4:.\source\rte/sc_input.h ****  *  file    SC_INPUT_signal.h
   5:.\source\rte/sc_input.h ****  *
   6:.\source\rte/sc_input.h ****  *  brief   signal base class for signal sc_input
   7:.\source\rte/sc_input.h ****  *
   8:.\source\rte/sc_input.h ****  *  author  Autogenerated, Peter Fromm       <peter.fromm@h-da.de>
   9:.\source\rte/sc_input.h ****  *
  10:.\source\rte/sc_input.h ****  * description: Signal class for clock input
  11:.\source\rte/sc_input.h ****  * name: sc_Input
  12:.\source\rte/sc_input.h ****  * shortname: Input
  13:.\source\rte/sc_input.h ****  *
  14:.\source\rte/sc_input.h ****  */
  15:.\source\rte/sc_input.h **** 
  16:.\source\rte/sc_input.h **** 
  17:.\source\rte/sc_input.h **** 
  18:.\source\rte/sc_input.h **** #ifndef SC_INPUT_SIGNAL_H_INCLUDED
  19:.\source\rte/sc_input.h **** #define SC_INPUT_SIGNAL_H_INCLUDED
  20:.\source\rte/sc_input.h **** 
  21:.\source\rte/sc_input.h **** /*================================================[ public includes  ]=============================
  22:.\source\rte/sc_input.h **** #include "global.h"
  23:.\source\rte/sc_input.h **** #include "project.h"
  24:.\source\rte/sc_input.h **** #include "rte.h"
  25:.\source\rte/sc_input.h **** #include "rte_types.h"
  26:.\source\rte/sc_input.h **** 
  27:.\source\rte/sc_input.h **** #include "sc_input_type.h"
ARM GAS  C:\Users\Admin\AppData\Local\Temp\cc9pAeWX.s 			page 3


  28:.\source\rte/sc_input.h **** 
  29:.\source\rte/sc_input.h **** 
  30:.\source\rte/sc_input.h **** /**************************************************************************************************
  31:.\source\rte/sc_input.h **** /* The driver API block																						*/
  32:.\source\rte/sc_input.h **** /**************************************************************************************************
  33:.\source\rte/sc_input.h ****                                                                                                    
  34:.\source\rte/sc_input.h **** /**
  35:.\source\rte/sc_input.h ****  *  Definition of function types for driver interfaces.
  36:.\source\rte/sc_input.h ****  *  I-Port
  37:.\source\rte/sc_input.h ****  */
  38:.\source\rte/sc_input.h **** typedef RC_t (*SC_INPUT_driverIn_t)(SC_INPUT_data_t * const);
  39:.\source\rte/sc_input.h **** 
  40:.\source\rte/sc_input.h **** /**
  41:.\source\rte/sc_input.h ****  *  Definition of function types for driver interfaces.
  42:.\source\rte/sc_input.h ****  *  O-Port
  43:.\source\rte/sc_input.h ****  */
  44:.\source\rte/sc_input.h **** typedef RC_t (*SC_INPUT_driverOut_t)( const SC_INPUT_data_t * const);
  45:.\source\rte/sc_input.h **** 
  46:.\source\rte/sc_input.h **** 
  47:.\source\rte/sc_input.h **** /**************************************************************************************************
  48:.\source\rte/sc_input.h **** /* The signal configuration API block																				*/
  49:.\source\rte/sc_input.h **** /**************************************************************************************************
  50:.\source\rte/sc_input.h **** 
  51:.\source\rte/sc_input.h **** /**
  52:.\source\rte/sc_input.h ****  * Instances of the struct SC_INPUT_cfg_t represent the signal object configuration.
  53:.\source\rte/sc_input.h ****  */
  54:.\source\rte/sc_input.h **** struct SC_INPUT_cfg_s
  55:.\source\rte/sc_input.h **** {
  56:.\source\rte/sc_input.h ****     /**
  57:.\source\rte/sc_input.h ****      * Function pointer to the input driver
  58:.\source\rte/sc_input.h ****      */
  59:.\source\rte/sc_input.h ****     SC_INPUT_driverIn_t const inDriver;
  60:.\source\rte/sc_input.h **** 
  61:.\source\rte/sc_input.h ****     /**
  62:.\source\rte/sc_input.h ****      * Function pointer to the output driver table
  63:.\source\rte/sc_input.h ****      */
  64:.\source\rte/sc_input.h ****    SC_INPUT_driverOut_t const outDriver;
  65:.\source\rte/sc_input.h ****    
  66:.\source\rte/sc_input.h ****     /**
  67:.\source\rte/sc_input.h ****      * Event onUpdate
  68:.\source\rte/sc_input.h ****      */
  69:.\source\rte/sc_input.h ****     EventMaskType const evOnUpdate;
  70:.\source\rte/sc_input.h ****     
  71:.\source\rte/sc_input.h ****     
  72:.\source\rte/sc_input.h ****     /**
  73:.\source\rte/sc_input.h ****      * Event onError
  74:.\source\rte/sc_input.h ****      */
  75:.\source\rte/sc_input.h ****     EventMaskType const evOnError;
  76:.\source\rte/sc_input.h ****     
  77:.\source\rte/sc_input.h ****     /**
  78:.\source\rte/sc_input.h ****      * Task Count onUpdate
  79:.\source\rte/sc_input.h ****      */
  80:.\source\rte/sc_input.h ****     size_t const onUpdateTaskCount;
  81:.\source\rte/sc_input.h **** 
  82:.\source\rte/sc_input.h ****     /**
  83:.\source\rte/sc_input.h ****      * Task List onUpdate
  84:.\source\rte/sc_input.h ****      */
ARM GAS  C:\Users\Admin\AppData\Local\Temp\cc9pAeWX.s 			page 4


  85:.\source\rte/sc_input.h ****     TaskTypeArray* const onUpdateTasks;
  86:.\source\rte/sc_input.h ****     
  87:.\source\rte/sc_input.h ****     /**
  88:.\source\rte/sc_input.h ****      * Task Count onError
  89:.\source\rte/sc_input.h ****      */
  90:.\source\rte/sc_input.h ****     size_t const onErrorTaskCount;
  91:.\source\rte/sc_input.h **** 
  92:.\source\rte/sc_input.h ****     /**
  93:.\source\rte/sc_input.h ****      * Task List onError
  94:.\source\rte/sc_input.h ****      */
  95:.\source\rte/sc_input.h ****     TaskTypeArray* const onErrorTasks;
  96:.\source\rte/sc_input.h **** 	
  97:.\source\rte/sc_input.h **** 	
  98:.\source\rte/sc_input.h **** 	/**
  99:.\source\rte/sc_input.h **** 	 * Ressourse is active? We need an additional boolean as a ressource value 0 is valid.
 100:.\source\rte/sc_input.h **** 	 */
 101:.\source\rte/sc_input.h **** 	 boolean_t const resourceActive;
 102:.\source\rte/sc_input.h **** 	 
 103:.\source\rte/sc_input.h **** 	/**
 104:.\source\rte/sc_input.h **** 	 * Ressourse 
 105:.\source\rte/sc_input.h **** 	 */
 106:.\source\rte/sc_input.h **** 	 ResourceType const resource;
 107:.\source\rte/sc_input.h **** 
 108:.\source\rte/sc_input.h **** };                                                                                                 
 109:.\source\rte/sc_input.h **** typedef const struct SC_INPUT_cfg_s SC_INPUT_cfg_t;
 110:.\source\rte/sc_input.h ****                               
 111:.\source\rte/sc_input.h **** /**************************************************************************************************
 112:.\source\rte/sc_input.h **** /* The data interface block																							*/
 113:.\source\rte/sc_input.h **** /**************************************************************************************************
 114:.\source\rte/sc_input.h **** 
 115:.\source\rte/sc_input.h ****                                                                                                    
 116:.\source\rte/sc_input.h **** 							  
 117:.\source\rte/sc_input.h **** /**
 118:.\source\rte/sc_input.h ****  * Instances of the struct SC_INPUT_t represent the signal objects.
 119:.\source\rte/sc_input.h ****  * A signal object contains the current application value 'value' as well as relevant meta data.
 120:.\source\rte/sc_input.h ****  */
 121:.\source\rte/sc_input.h **** struct SC_INPUT_s
 122:.\source\rte/sc_input.h **** {                                                                                                  
 123:.\source\rte/sc_input.h **** 
 124:.\source\rte/sc_input.h **** 	/**
 125:.\source\rte/sc_input.h **** 	 * Data buffer for the application value
 126:.\source\rte/sc_input.h **** 	 */
 127:.\source\rte/sc_input.h ****     SC_INPUT_data_t value;
 128:.\source\rte/sc_input.h **** 
 129:.\source\rte/sc_input.h ****     /**
 130:.\source\rte/sc_input.h ****      * Current signal status
 131:.\source\rte/sc_input.h ****      */
 132:.\source\rte/sc_input.h ****     RTE_signalStatus_t status;
 133:.\source\rte/sc_input.h **** 
 134:.\source\rte/sc_input.h ****     /**
 135:.\source\rte/sc_input.h ****      * Current age of the signal (in calling cycles)
 136:.\source\rte/sc_input.h ****      */
 137:.\source\rte/sc_input.h ****     uint32_t age;
 138:.\source\rte/sc_input.h **** 
 139:.\source\rte/sc_input.h ****     /**
 140:.\source\rte/sc_input.h ****      * Pointer to the signal configuration
 141:.\source\rte/sc_input.h ****      */
ARM GAS  C:\Users\Admin\AppData\Local\Temp\cc9pAeWX.s 			page 5


 142:.\source\rte/sc_input.h **** 	const SC_INPUT_cfg_t * const    pSigCfg;
 143:.\source\rte/sc_input.h **** 
 144:.\source\rte/sc_input.h **** };                                                                                                 
 145:.\source\rte/sc_input.h **** typedef struct SC_INPUT_s SC_INPUT_t;
 146:.\source\rte/sc_input.h **** 
 147:.\source\rte/sc_input.h **** /**************************************************************************************************
 148:.\source\rte/sc_input.h **** /* Signal initialisation   																							*/
 149:.\source\rte/sc_input.h **** /**************************************************************************************************
 150:.\source\rte/sc_input.h **** 
 151:.\source\rte/sc_input.h **** /**
 152:.\source\rte/sc_input.h ****  * Initializes a signal instance with a passed init value.
 153:.\source\rte/sc_input.h ****  * Depending on the configured conversion or scaling function the raw_value will be calculated.
 154:.\source\rte/sc_input.h ****  * Signal status will change from RTE_SIGNALSTATUS_STARTUP to RTE_SIGNALSTATUS_INITIALIZED.
 155:.\source\rte/sc_input.h ****  *
 156:.\source\rte/sc_input.h ****  * @param  SC_INPUT_t * const signal: Pointer to the signal object which will be initialised
 157:.\source\rte/sc_input.h ****  * @return RC_t: standard return code, currently only RC_SUCCESS
 158:.\source\rte/sc_input.h ****  *
 159:.\source\rte/sc_input.h ****  **/
 160:.\source\rte/sc_input.h **** inline RC_t RTE_SC_INPUT_init( SC_INPUT_t * const signal )
 161:.\source\rte/sc_input.h **** {                                                                                                  
 162:.\source\rte/sc_input.h **** 
 163:.\source\rte/sc_input.h ****    RC_t ret = RC_SUCCESS;
 164:.\source\rte/sc_input.h **** 
 165:.\source\rte/sc_input.h ****    //Set value and raw value
 166:.\source\rte/sc_input.h ****    signal->value  = SC_INPUT_INIT_DATA;
 167:.\source\rte/sc_input.h ****    signal->age    = 0;
 168:.\source\rte/sc_input.h ****    signal->status = RTE_SIGNALSTATUS_INITIALIZED;
 169:.\source\rte/sc_input.h **** 
 170:.\source\rte/sc_input.h ****    return ret;
 171:.\source\rte/sc_input.h **** }
 172:.\source\rte/sc_input.h **** 
 173:.\source\rte/sc_input.h **** /**************************************************************************************************
 174:.\source\rte/sc_input.h **** /* Status and timeout control																						*/
 175:.\source\rte/sc_input.h **** /**************************************************************************************************
 176:.\source\rte/sc_input.h **** 
 177:.\source\rte/sc_input.h **** /**
 178:.\source\rte/sc_input.h ****  *  Returns the current signal status of the passed signal instance.
 179:.\source\rte/sc_input.h ****  *
 180:.\source\rte/sc_input.h ****  * @param  SC_INPUT_t * const signal: Pointer to the signal object
 181:.\source\rte/sc_input.h ****  * @return  sig_status_t: The current signal status
 182:.\source\rte/sc_input.h ****  *
 183:.\source\rte/sc_input.h ****  **/
 184:.\source\rte/sc_input.h **** inline RTE_signalStatus_t RTE_SC_INPUT_getStatus( const SC_INPUT_t * const signal )
 185:.\source\rte/sc_input.h **** {
 186:.\source\rte/sc_input.h ****    return signal->status;
 187:.\source\rte/sc_input.h **** }
 188:.\source\rte/sc_input.h **** 
 189:.\source\rte/sc_input.h **** 
 190:.\source\rte/sc_input.h **** /**
 191:.\source\rte/sc_input.h ****  *  Sets a new signal status of the passed signal instance by passing the new status.
 192:.\source\rte/sc_input.h ****  *
 193:.\source\rte/sc_input.h ****  * @param  SC_INPUT_t * const signal: Pointer to the signal object
 194:.\source\rte/sc_input.h ****  * @param  const sig_status_t status: New signal status
 195:.\source\rte/sc_input.h ****  * @return RC_t: standard return code, currently only RC_SUCCESS
 196:.\source\rte/sc_input.h ****  *
 197:.\source\rte/sc_input.h ****  */
 198:.\source\rte/sc_input.h **** inline RC_t RTE_SC_INPUT_setStatus( SC_INPUT_t * const signal, const RTE_signalStatus_t status )
ARM GAS  C:\Users\Admin\AppData\Local\Temp\cc9pAeWX.s 			page 6


 199:.\source\rte/sc_input.h **** {
 200:.\source\rte/sc_input.h ****    signal->status = status;
 201:.\source\rte/sc_input.h ****    size_t taskNum=0;
 202:.\source\rte/sc_input.h ****    
 203:.\source\rte/sc_input.h ****    //Fire error events in case of invalid state
 204:.\source\rte/sc_input.h ****    if (signal->status == RTE_SIGNALSTATUS_INVALID)
 205:.\source\rte/sc_input.h ****    {
 206:.\source\rte/sc_input.h **** 	    //Pointer to the Taskarray, containing the tasks receiving the onUpdate events
 207:.\source\rte/sc_input.h **** 		TaskTypeArray* pTaskArray = signal->pSigCfg->onErrorTasks;
 208:.\source\rte/sc_input.h **** 
 209:.\source\rte/sc_input.h **** 		if (0 != signal->pSigCfg->evOnError && NULL != pTaskArray){
 210:.\source\rte/sc_input.h **** 			for( taskNum=0 ; taskNum < signal->pSigCfg->onErrorTaskCount ;taskNum++){
 211:.\source\rte/sc_input.h **** 				TaskType task = (*pTaskArray)[taskNum];
 212:.\source\rte/sc_input.h **** 				SetEvent( task, signal->pSigCfg->evOnError);
 213:.\source\rte/sc_input.h **** 			}
 214:.\source\rte/sc_input.h **** 		}
 215:.\source\rte/sc_input.h ****    }
 216:.\source\rte/sc_input.h ****    
 217:.\source\rte/sc_input.h ****    return RC_SUCCESS;
 218:.\source\rte/sc_input.h **** }
 219:.\source\rte/sc_input.h **** 
 220:.\source\rte/sc_input.h **** 
 221:.\source\rte/sc_input.h **** /**
 222:.\source\rte/sc_input.h ****  * Returns the count of refreshing trials (refresh, set or set_raw) that failed.
 223:.\source\rte/sc_input.h ****  * Prerquisite: The signal is refreshed cyclically
 224:.\source\rte/sc_input.h ****  *
 225:.\source\rte/sc_input.h ****  * @param  SC_INPUT_t * const signal: Pointer to the signal object
 226:.\source\rte/sc_input.h ****  * @return uint32_t: Number of cycles since the signal has been updated for the last time
 227:.\source\rte/sc_input.h ****  */
 228:.\source\rte/sc_input.h **** inline uint32_t RTE_SC_INPUT_getAge( const SC_INPUT_t * const signal )
 229:.\source\rte/sc_input.h **** {
 230:.\source\rte/sc_input.h ****    return signal->age;
 231:.\source\rte/sc_input.h **** }
 232:.\source\rte/sc_input.h **** 
 233:.\source\rte/sc_input.h **** /**
 234:.\source\rte/sc_input.h ****  * Should be called by application or driver if no new value can be provided.
 235:.\source\rte/sc_input.h ****  * @param  SC_INPUT_t * const signal: Pointer to the signal object
 236:.\source\rte/sc_input.h ****  * @param uint32_t increment: incrementvalue, typically in [ms]
 237:.\source\rte/sc_input.h ****  * @return void
 238:.\source\rte/sc_input.h ****  */
 239:.\source\rte/sc_input.h **** inline void RTE_SC_INPUT_incAge(  SC_INPUT_t * const signal , uint32_t increment)
 240:.\source\rte/sc_input.h **** {
 241:.\source\rte/sc_input.h **** 	   //Hack....
 242:.\source\rte/sc_input.h **** 	   if ( 0xFFFF0000 > (signal->age + increment) )
 243:.\source\rte/sc_input.h **** 	   {
 244:.\source\rte/sc_input.h **** 	      signal->age += increment;
 245:.\source\rte/sc_input.h **** 	   }
 246:.\source\rte/sc_input.h **** }
 247:.\source\rte/sc_input.h **** 
 248:.\source\rte/sc_input.h **** 
 249:.\source\rte/sc_input.h **** /**************************************************************************************************
 250:.\source\rte/sc_input.h **** /* Application Data read/write Interface																			*/
 251:.\source\rte/sc_input.h **** /**************************************************************************************************
 252:.\source\rte/sc_input.h **** 
 253:.\source\rte/sc_input.h **** /**
 254:.\source\rte/sc_input.h ****  * Returns the current application value as pointer to the signal payload.
 255:.\source\rte/sc_input.h ****  * Careful: This is not threadsafe!!!
ARM GAS  C:\Users\Admin\AppData\Local\Temp\cc9pAeWX.s 			page 7


 256:.\source\rte/sc_input.h ****  *
 257:.\source\rte/sc_input.h ****  * @param  SC_INPUT_t * const signal: Pointer to the signal object
 258:.\source\rte/sc_input.h ****  * @return sc_input_data_t*: pointer to the current value of the application data buffer
 259:.\source\rte/sc_input.h ****  *
 260:.\source\rte/sc_input.h ****  **/
 261:.\source\rte/sc_input.h **** inline SC_INPUT_data_t* RTE_SC_INPUT_getPtr( SC_INPUT_t * const signal )
 262:.\source\rte/sc_input.h **** {               
 263:.\source\rte/sc_input.h ****    //Todo: Critical region cannot be protected using return values																						
 264:.\source\rte/sc_input.h ****    return &(signal->value);                                                                        
 265:.\source\rte/sc_input.h **** }
 266:.\source\rte/sc_input.h **** 
 267:.\source\rte/sc_input.h **** /**
 268:.\source\rte/sc_input.h ****  * Returns the current application value of the passed signal instance.
 269:.\source\rte/sc_input.h ****  *
 270:.\source\rte/sc_input.h ****  * @param  SC_INPUT_t * const signal: Pointer to the signal object
 271:.\source\rte/sc_input.h ****  * @return sc_input_data_t: current value of the application data buffer
 272:.\source\rte/sc_input.h ****  *
 273:.\source\rte/sc_input.h ****  **/
 274:.\source\rte/sc_input.h **** inline SC_INPUT_data_t RTE_SC_INPUT_get( const SC_INPUT_t * const signal )
 275:.\source\rte/sc_input.h **** {               
 276:.\source\rte/sc_input.h ****    //Todo: Critical region cannot be protected using return values																						
 277:.\source\rte/sc_input.h ****    return signal->value;                                                                           
  44              		.loc 2 277 0
  45 0004 01AC     		add	r4, sp, #4
  46 0006 094D     		ldr	r5, .L4
  47 0008 0FCD     		ldmia	r5!, {r0, r1, r2, r3}
  48              	.LVL2:
  49 000a 0FC4     		stmia	r4!, {r0, r1, r2, r3}
  50 000c 0FCD     		ldmia	r5!, {r0, r1, r2, r3}
  51 000e 0FC4     		stmia	r4!, {r0, r1, r2, r3}
  52 0010 0FCD     		ldmia	r5!, {r0, r1, r2, r3}
  53 0012 0FC4     		stmia	r4!, {r0, r1, r2, r3}
  54 0014 95E80700 		ldmia	r5, {r0, r1, r2}
  55 0018 84E80700 		stmia	r4, {r0, r1, r2}
  56              	.LVL3:
  57              	.LBE5:
  58              	.LBE4:
  45:source\asw/swc_control.c **** 	
  46:source\asw/swc_control.c **** 	/* USER CODE START CONTROL_Clock_control_run */
  47:source\asw/swc_control.c ****     
  48:source\asw/swc_control.c ****     SC_INPUT_data_t rxEvent;
  49:source\asw/swc_control.c ****     
  50:source\asw/swc_control.c ****     rxEvent = RTE_SC_INPUT_get(&SO_BUTTONEVENT_signal);
  51:source\asw/swc_control.c ****     
  52:source\asw/swc_control.c ****     if(rxEvent.m_ev != EV_NONE)
  59              		.loc 1 52 0
  60 001c 9DF80400 		ldrb	r0, [sp, #4]	@ zero_extendqisi2
  61 0020 08B1     		cbz	r0, .L1
  53:source\asw/swc_control.c ****     {
  54:source\asw/swc_control.c ****         ProcessEvent(rxEvent.m_ev);
  62              		.loc 1 54 0
  63 0022 FFF7FEFF 		bl	ProcessEvent
  64              	.LVL4:
  65              	.L1:
  55:source\asw/swc_control.c ****     }
  56:source\asw/swc_control.c **** 
  57:source\asw/swc_control.c ****     /* USER CODE END CONTROL_Clock_control_run */
ARM GAS  C:\Users\Admin\AppData\Local\Temp\cc9pAeWX.s 			page 8


  58:source\asw/swc_control.c **** }
  66              		.loc 1 58 0
  67 0026 11B0     		add	sp, sp, #68
  68              		.cfi_def_cfa_offset 12
  69              		@ sp needed
  70 0028 30BD     		pop	{r4, r5, pc}
  71              	.L5:
  72 002a 00BF     		.align	2
  73              	.L4:
  74 002c 00000000 		.word	SO_BUTTONEVENT_signal
  75              		.cfi_endproc
  76              	.LFE144:
  77              		.size	CONTROL_Clock_control_run, .-CONTROL_Clock_control_run
  78              		.text
  79              	.Letext0:
  80              		.file 3 "d:\\psoc creator\\4.4\\psoc creator\\import\\gnu\\arm\\5.4.1\\arm-none-eabi\\include\\mac
  81              		.file 4 "d:\\psoc creator\\4.4\\psoc creator\\import\\gnu\\arm\\5.4.1\\arm-none-eabi\\include\\sys
  82              		.file 5 "d:\\psoc creator\\4.4\\psoc creator\\import\\gnu\\arm\\5.4.1\\lib\\gcc\\arm-none-eabi\\5.
  83              		.file 6 "Generated_Source\\PSoC5/ErikaOS_common_ee_types.inc"
  84              		.file 7 "Generated_Source\\PSoC5/ErikaOS_cortex_mx_ee_cpu.inc"
  85              		.file 8 "Generated_Source\\PSoC5/ErikaOS_ee_oo_common.inc"
  86              		.file 9 ".\\source\\bsw/global.h"
  87              		.file 10 ".\\source\\rte/rte_types.h"
  88              		.file 11 ".\\source\\rte/rte.h"
  89              		.file 12 ".\\source\\bsw\\tft/tft.h"
  90              		.file 13 ".\\source\\asw/clock_type.h"
  91              		.file 14 ".\\source\\asw/statemachine.h"
  92              		.file 15 ".\\source\\rte/sc_input_type.h"
  93              		.file 16 "Generated_Source\\PSoC5/ErikaOS_ee_oo_intfunc.inc"
  94              		.file 17 "Generated_Source\\PSoC5/ErikaOS_cortex_mx_ee_context.inc"
  95              		.file 18 "Generated_Source\\PSoC5/ErikaOS_common_ee_primitives.inc"
  96              		.file 19 "Generated_Source\\PSoC5/core_cm3.h"
  97              		.file 20 ".\\source\\rte/sp_common.h"
  98              		.file 21 ".\\source\\asw/clock.h"